(dp1
(F0.029999999999999999
F0.02
tp2
(lp3
(dp4
S'action'
p5
cnumpy.core.multiarray
scalar
p6
(cnumpy
dtype
p7
(S'f8'
I0
I1
tRp8
(I3
S'<'
NNNI-1
I-1
I0
tbS'J33333\xeb?'
tRp9
sS'count'
p10
F3
sS'value'
p11
F1
sas(F0.92000000000000004
F0.83999999999999997
tp12
(lp13
(dp14
g5
g6
(g8
S'\xc0\x14\xaeG\xe1z\xc4?'
tRp15
sg10
F2
sg11
F-0.22869999999999999
sa(dp16
g5
g6
(g8
S'\xe7\xa3p=\n\xd7\xff?'
tRp17
sg10
F1
sg11
F-0.1731
sas(F-0.089999999999999997
F0
tp18
(lp19
(dp20
S'action'
p21
g6
(g8
S'\xf8\xff\xff\xff\xff\xff\xef\xbf'
tRp22
sS'count'
p23
F2302
sS'value'
p24
F0.0018
sa(dp25
g21
g6
(g8
S'\xd0\xd6\xa3p=\n\xc7\xbf'
tRp26
sg23
F17
sg24
F0.0038999999999999998
sa(dp27
g21
g6
(g8
S'>\\\x8f\xc2\xf5(\xe4?'
tRp28
sg23
F1
sg24
F0
sa(dp29
S'action'
p30
g6
(g8
S'w\x14\xaeG\xe1z\xf0\xbf'
tRp31
sS'count'
p32
F1
sS'value'
p33
F0
sa(dp34
g30
g6
(g8
S'\xa0p=\n\xd7\xa3\xf0\xbf'
tRp35
sg32
F1
sg33
F0
sa(dp36
g30
g6
(g8
S'\xe8Q\xb8\x1e\x85\xeb\xf1\xbf'
tRp37
sg32
F1
sg33
F0
sa(dp38
g30
g6
(g8
S'\x16\x00\x00\x00\x00\x00\xe8?'
tRp39
sg32
F1
sg33
F0.00029999999999999997
sa(dp40
S'action'
p41
g6
(g8
S'N\xb8\x1e\x85\xebQ\xf0\xbf'
tRp42
sS'count'
p43
F1
sS'value'
p44
F0.0016000000000000001
sa(dp45
g41
g6
(g8
S'\xe2\xcc\xcc\xcc\xcc\xcc\xe4?'
tRp46
sg43
F243
sg44
F0.0082000000000000007
sa(dp47
g5
g6
(g8
S'\x99\x99\x99\x99\x99\x99\xfd\xbf'
tRp48
sg10
F1
sg11
F0
sas(F0.47999999999999998
F-0.02
tp49
(lp50
(dp51
g5
g15
sg10
F51
sg11
F0
sa(dp52
g5
g6
(g8
S'\x0c\x00\x00\x00\x00\x00\xf0?'
tRp53
sg10
F1
sg11
F0
sa(dp54
g5
g6
(g8
S'f=\n\xd7\xa3p\xe5\xbf'
tRp55
sg10
F1
sg11
F0
sas(F0.23000000000000001
F0
tp56
(lp57
(dp58
g21
g6
(g8
S'\xf0\xd6\xa3p=\n\xd7\xbf'
tRp59
sg23
F11888
sg24
F0
sa(dp60
g21
g6
(g8
S'\x98=\n\xd7\xa3p\xdd?'
tRp61
sg23
F1
sg24
F0
sa(dp62
g30
g6
(g8
S'8\xb8\x1e\x85\xebQ\xd8\xbf'
tRp63
sg32
F1
sg33
F0
sa(dp64
g30
g6
(g8
S'\x80\x99\x99\x99\x99\x99\xd9\xbf'
tRp65
sg32
F1
sg33
F0
sa(dp66
g30
g6
(g8
S'\xb4\xcc\xcc\xcc\xcc\xcc\xdc\xbf'
tRp67
sg32
F1
sg33
F0
sa(dp68
g30
g6
(g8
S'\xa0\x1e\x85\xebQ\xb8\xde\xbf'
tRp69
sg32
F1
sg33
F0
sa(dp70
g30
g6
(g8
S'K\n\xd7\xa3p=\xf6?'
tRp71
sg32
F1
sg33
F0
sa(dp72
g41
g6
(g8
S'\xb1p=\n\xd7\xa3\xf4?'
tRp73
sg43
F1
sg44
F0
sa(dp74
g5
g6
(g8
S'Y\x8f\xc2\xf5(\\\xf3\xbf'
tRp75
sg10
F1
sg11
F0
sas(F-0.20999999999999999
F0.01
tp76
(lp77
(dp78
g30
g6
(g8
S'\x10\\\x8f\xc2\xf5(\xdc\xbf'
tRp79
sg32
F288
sg33
F0
sa(dp80
g5
g6
(g8
S'\x1c)\\\x8f\xc2\xf5\xd8?'
tRp81
sg10
F1
sg11
F0
sa(dp82
g5
g6
(g8
S'd\n\xd7\xa3p=\xda?'
tRp83
sg10
F1
sg11
F0
sas(F0.90000000000000002
F-0.01
tp84
(lp85
(dp86
g5
g6
(g8
S'.\x85\xebQ\xb8\x1e\xfd?'
tRp87
sg10
F251
sg11
F-0.019
sas(F0.32000000000000001
F0.45000000000000001
tp88
(lp89
(dp90
g41
g6
(g8
S'\x88p=\n\xd7\xa3\xd0\xbf'
tRp91
sg43
F2
sg44
F-0.1371
sas(F0.32000000000000001
F0.029999999999999999
tp92
(lp93
(dp94
g30
g6
(g8
S'\xa4\xc2\xf5(\\\x8f\xe2?'
tRp95
sg32
F19
sg33
F-1.0772999999999999
sa(dp96
g30
g6
(g8
S'\xe7\xa3p=\n\xd7\xff?'
tRp97
sg32
F11
sg33
F-1.1131
sas(F0.51000000000000001
F0
tp98
(lp99
(dp100
g5
g6
(g8
S'\xc2\xcc\xcc\xcc\xcc\xcc\xe4\xbf'
tRp101
sg10
F1088
sg11
F0
sa(dp102
g5
g6
(g8
S'\xa9\x99\x99\x99\x99\x99\xfd?'
tRp103
sg10
F1
sg11
F0
sa(dp104
g5
g6
(g8
S'^\xb8\x1e\x85\xebQ\xf0?'
tRp105
sg10
F1
sg11
F0
sa(dp106
g5
g6
(g8
S'P\xd7\xa3p=\n\xc7?'
tRp107
sg10
F1
sg11
F0
sas(F-0.12
F-0.01
tp108
(lp109
(dp110
g21
g6
(g8
S'\xf0[\x8f\xc2\xf5(\xcc\xbf'
tRp111
sg23
F495
sg24
F0
sa(dp112
g41
g6
(g8
S'\xf2(\\\x8f\xc2\xf5\xf0\xbf'
tRp113
sg43
F1
sg44
F0
sa(dp114
g5
g6
(g8
S'=\n\xd7\xa3p=\xfe\xbf'
tRp115
sg10
F1
sg11
F0
sa(dp116
g5
g6
(g8
S'D\xe1z\x14\xaeG\xf1\xbf'
tRp117
sg10
F1
sg11
F0
sas(F0.31
F0.01
tp118
(lp119
(dp120
g30
g6
(g8
S'H33333\xe3?'
tRp121
sg32
F204
sg33
F-0.1103
sa(dp122
g30
g6
(g8
S'\x89\x14\xaeG\xe1z\xf8?'
tRp123
sg32
F190
sg33
F-0.31759999999999999
sa(dp124
g30
g6
(g8
S'\xdb\xcc\xcc\xcc\xcc\xcc\xf8?'
tRp125
sg32
F104
sg33
F-0.2954
sa(dp126
g41
g6
(g8
S'A33333\xf7?'
tRp127
sg43
F578
sg44
F-0.1777
sa(dp128
g5
g6
(g8
S'\xefz\x14\xaeG\xe1\xf6?'
tRp129
sg10
F218
sg11
F-0.083400000000000002
sas(F-0.52000000000000002
F0.01
tp130
(lp131
(dp132
S'action'
p133
g6
(g8
S'\xf2(\\\x8f\xc2\xf5\xf0\xbf'
tRp134
sS'count'
p135
F1
sS'value'
p136
F-0.045199999999999997
sa(dp137
g5
g6
(g8
S'8=\n\xd7\xa3p\xcd\xbf'
tRp138
sg10
F12
sg11
F-0.0023
sas(F0.23999999999999999
F-0.02
tp139
(lp140
(dp141
g5
g6
(g8
S'\xb8p=\n\xd7\xa3\xe0?'
tRp142
sg10
F51
sg11
F0
sa(dp143
g5
g6
(g8
S'`\x14\xaeG\xe1z\xd4\xbf'
tRp144
sg10
F1
sg11
F0
sa(dp145
g5
g6
(g8
S'\x07\xd7\xa3p=\n\xf3\xbf'
tRp146
sg10
F1
sg11
F0
sas(F0.92000000000000004
F0.40000000000000002
tp147
(lp148
(dp149
g5
g6
(g8
S'\xb0p=\n\xd7\xa3\xf0?'
tRp150
sg10
F8
sg11
F-0.49049999999999999
sas(F0.32000000000000001
F0.12
tp151
(lp152
(dp153
g30
g6
(g8
S'\xc0\x99\x99\x99\x99\x99\xd9?'
tRp154
sg32
F7
sg33
F-0.60099999999999998
sa(dp155
g30
g97
sg32
F2
sg33
F-0.58009999999999995
sa(dp156
g30
g6
(g8
S'<\xe1z\x14\xaeG\xe1\xbf'
tRp157
sg32
F11
sg33
F-0.55520000000000003
sas(F-0.17999999999999999
F0.01
tp158
(lp159
(dp160
g30
g63
sg32
F322
sg33
F0
sa(dp161
g5
g6
(g8
S'<\xaeG\xe1z\x14\xde?'
tRp162
sg10
F1
sg11
F0
sa(dp163
g5
g6
(g8
S'\xf4\xcc\xcc\xcc\xcc\xcc\xdc?'
tRp164
sg10
F1
sg11
F0
sas(F0.83999999999999997
F0
tp165
(lp166
(dp167
g5
g6
(g8
S'\xf8z\x14\xaeG\xe1\xea?'
tRp168
sg10
F142
sg11
F0
sa(dp169
g5
g6
(g8
S'\x80\x18\xaeG\xe1z\x84?'
tRp170
sg10
F1
sg11
F0
sas(F0.050000000000000003
F0.01
tp171
(lp172
(dp173
g21
g6
(g8
S'\x00\x15\xaeG\xe1z\xb4?'
tRp174
sg23
F631
sg24
F0.69399999999999995
sa(dp175
g30
g6
(g8
S'\x87\x14\xaeG\xe1z\xf0?'
tRp176
sg32
F1
sg33
F0.18640000000000001
sa(dp177
g30
g6
(g8
S'5\\\x8f\xc2\xf5(\xf0?'
tRp178
sg32
F1
sg33
F0.19020000000000001
sa(dp179
g41
g6
(g8
S'\xda\xf5(\\\x8f\xc2\xed?'
tRp180
sg43
F1
sg44
F0.18429999999999999
sa(dp181
g41
g6
(g8
S'6\x85\xebQ\xb8\x1e\xed?'
tRp182
sg43
F87
sg44
F0.50090000000000001
sas(F0.67000000000000004
F-0.01
tp183
(lp184
(dp185
g5
g6
(g8
S'\xd0\xf5(\\\x8f\xc2\xf5?'
tRp186
sg10
F348
sg11
F0
sa(dp187
g5
g142
sg10
F1
sg11
F0
sa(dp188
g5
g6
(g8
S'\xbc\xa3p=\n\xd7\xd3\xbf'
tRp189
sg10
F1
sg11
F0
sas(F0.32000000000000001
F0.10000000000000001
tp190
(lp191
(dp192
g30
g6
(g8
S'P\\\x8f\xc2\xf5(\xdc?'
tRp193
sg32
F9
sg33
F-0.58840000000000003
sa(dp194
g30
g97
sg32
F7
sg33
F-0.67830000000000001
sa(dp195
g30
g6
(g8
S'\xe8\xff\xff\xff\xff\xff\xdf\xbf'
tRp196
sg32
F9
sg33
F-0.61739999999999995
sas(F0.14000000000000001
F-0.02
tp197
(lp198
(dp199
g5
g6
(g8
S'\x98p=\n\xd7\xa3\xe0\xbf'
tRp200
sg10
F45
sg11
F0
sa(dp201
g5
g6
(g8
S'\xa0\x14\xaeG\xe1z\xd4?'
tRp202
sg10
F1
sg11
F0
sa(dp203
g5
g6
(g8
S'\x97\x99\x99\x99\x99\x99\xf5\xbf'
tRp204
sg10
F1
sg11
F0
sa(dp205
g5
g6
(g8
S';\n\xd7\xa3p=\xf6\xbf'
tRp206
sg10
F1
sg11
F0
sas(F0.20999999999999999
F0
tp207
(lp208
(dp209
g21
g6
(g8
S'\x80\x99\x99\x99\x99\x99\xd9\xbf'
tRp210
sg23
F9995
sg24
F0
sa(dp211
g21
g6
(g8
S'\x08{\x14\xaeG\xe1\xda?'
tRp212
sg23
F1
sg24
F0
sa(dp213
g30
g6
(g8
S'\xc8z\x14\xaeG\xe1\xda\xbf'
tRp214
sg32
F1
sg33
F0
sa(dp215
g30
g79
sg32
F1
sg33
F0
sa(dp216
g30
g6
(g8
S'D\x8f\xc2\xf5(\\\xdf\xbf'
tRp217
sg32
F1
sg33
F0
sa(dp218
g30
g6
(g8
S'\x98p=\n\xd7\xa3\xe0\xbf'
tRp219
sg32
F1
sg33
F0
sa(dp220
g30
g6
(g8
S'\xa7\x99\x99\x99\x99\x99\xf5?'
tRp221
sg32
F1
sg33
F0
sa(dp222
g41
g6
(g8
S'\r\x00\x00\x00\x00\x00\xf4?'
tRp223
sg43
F1
sg44
F0
sa(dp224
g5
g6
(g8
S'\xfd\xff\xff\xff\xff\xff\xf3\xbf'
tRp225
sg10
F1
sg11
F0
sas(F0.02
F0.01
tp226
(lp227
(dp228
g21
g6
(g8
S'\x80\x16\xaeG\xe1z\x94?'
tRp229
sg23
F543
sg24
F0.86509999999999998
sa(dp230
g30
g6
(g8
S'"\xd7\xa3p=\n\xef?'
tRp231
sg32
F71
sg33
F0.90410000000000001
sa(dp232
g30
g6
(g8
S'~fffff\xee?'
tRp233
sg32
F43
sg33
F1
sa(dp234
g41
g6
(g8
S'\xee\xa3p=\n\xd7\xeb?'
tRp235
sg43
F69
sg44
F0.88539999999999996
sa(dp236
g41
g6
(g8
S'J33333\xeb?'
tRp237
sg43
F107
sg44
F0.8095
sas(F-0.46999999999999997
F0
tp238
(lp239
(dp240
g133
g6
(g8
S'z\x14\xaeG\xe1z\xfc\xbf'
tRp241
sg135
F1
sg136
F-0.031
sa(dp242
g5
g6
(g8
S'\x0c\xaeG\xe1z\x14\xee\xbf'
tRp243
sg10
F147
sg11
F-0.0014
sa(dp244
g5
g6
(g8
S'\xb0[\x8f\xc2\xf5(\xbc\xbf'
tRp245
sg10
F35
sg11
F-0.0025000000000000001
sas(F-0.66000000000000003
F-0.01
tp246
(lp247
(dp248
g5
g6
(g8
S'\xca\xcc\xcc\xcc\xcc\xcc\xf4\xbf'
tRp249
sg10
F1
sg11
F0
sas(F-0.20999999999999999
F0
tp250
(lp251
(dp252
g30
g6
(g8
S'\xc0\xf5(\\\x8f\xc2\xf5\xbf'
tRp253
sg32
F664
sg33
F0
sa(dp254
g30
g214
sg32
F1
sg33
F0
sa(dp255
g30
g6
(g8
S'f\xb8\x1e\x85\xebQ\xe0?'
tRp256
sg32
F1
sg33
F0
sa(dp257
g5
g6
(g8
S'&\\\x8f\xc2\xf5(\xf4\xbf'
tRp258
sg10
F1
sg11
F0
sa(dp259
g5
g83
sg10
F1
sg11
F0
sa(dp260
g5
g6
(g8
S'\x00\x00\x00\x00\x00\x00\x00\xc0'
tRp261
sg10
F1
sg11
F0
sas(F-0.27000000000000002
F0
tp262
(lp263
(dp264
g30
g6
(g8
S'\xacG\xe1z\x14\xae\xf7\xbf'
tRp265
sg32
F572
sg33
F0
sa(dp266
g5
g6
(g8
S'\x12\xaeG\xe1z\x14\xf6\xbf'
tRp267
sg10
F1
sg11
F0
sa(dp268
g5
g6
(g8
S'<\xe1z\x14\xaeG\xe1\xbf'
tRp269
sg10
F1
sg11
F0
sa(dp270
g5
g6
(g8
S'\xb4\xc2\xf5(\\\x8f\xd2?'
tRp271
sg10
F1
sg11
F0
sas(F-0.070000000000000007
F0.01
tp272
(lp273
(dp274
g21
g6
(g8
S'@\x14\xaeG\xe1z\xc4\xbf'
tRp275
sg23
F577
sg24
F0.1011
sa(dp276
g30
g6
(g8
S'^\xe1z\x14\xaeG\xe9?'
tRp277
sg32
F1
sg33
F0
sa(dp278
g30
g6
(g8
S'\xbap=\n\xd7\xa3\xe8?'
tRp279
sg32
F1
sg33
F0.00059999999999999995
sa(dp280
g41
g6
(g8
S'*\xaeG\xe1z\x14\xe6?'
tRp281
sg43
F1
sg44
F0.00089999999999999998
sa(dp282
g5
g6
(g8
S'\x86=\n\xd7\xa3p\xe5?'
tRp283
sg10
F13
sg11
F0.099000000000000005
sas(F0.28000000000000003
F-0.01
tp284
(lp285
(dp286
g21
g6
(g8
S'\xa4\xc2\xf5(\\\x8f\xe2?'
tRp287
sg23
F575
sg24
F-0.00089999999999999998
sa(dp288
g30
g63
sg32
F1241
sg33
F0
sa(dp289
g41
g6
(g8
S'\xd0Q\xb8\x1e\x85\xeb\xd1\xbf'
tRp290
sg43
F1
sg44
F0
sa(dp291
g5
g6
(g8
S'\x88p=\n\xd7\xa3\xd0\xbf'
tRp292
sg10
F1
sg11
F0
sa(dp293
g5
g6
(g8
S'm=\n\xd7\xa3p\xf1\xbf'
tRp294
sg10
F1
sg11
F0
sas(F0.20999999999999999
F-0.01
tp295
(lp296
(dp297
g21
g6
(g8
S'P\\\x8f\xc2\xf5(\xdc?'
tRp298
sg23
F1601
sg24
F0
sa(dp299
g30
g219
sg32
F1
sg33
F0
sa(dp300
g30
g196
sg32
F1
sg33
F0
sa(dp301
g41
g6
(g8
S'\xc8z\x14\xaeG\xe1\xda\xbf'
tRp302
sg43
F1
sg44
F0
sa(dp303
g41
g6
(g8
S'\x80\x99\x99\x99\x99\x99\xd9\xbf'
tRp304
sg43
F1
sg44
F0
sa(dp305
g5
g6
(g8
S'\xabG\xe1z\x14\xae\xf3\xbf'
tRp306
sg10
F1
sg11
F0
sas(F-0.22
F0.01
tp307
(lp308
(dp309
g30
g6
(g8
S'X=\n\xd7\xa3p\xdd\xbf'
tRp310
sg32
F273
sg33
F0
sa(dp311
g5
g81
sg10
F1
sg11
F0
sa(dp312
g5
g6
(g8
S'\xd4G\xe1z\x14\xae\xd7?'
tRp313
sg10
F1
sg11
F0
sas(F0.92000000000000004
F0.91000000000000003
tp314
(lp315
(dp316
g5
g6
(g8
S'\x80\x16\xaeG\xe1z\x94?'
tRp317
sg10
F1
sg11
F-0.85140000000000005
sa(dp318
g5
g17
sg10
F2
sg11
F-1.2961
sa(dp319
g5
g9
sg10
F14
sg11
F-0.78310000000000002
sas(F0.20000000000000001
F0.01
tp320
(lp321
(dp322
g30
g6
(g8
S'x\xb8\x1e\x85\xebQ\xd8?'
tRp323
sg32
F1128
sg33
F0
sa(dp324
g30
g6
(g8
S'U\xe1z\x14\xaeG\xf5?'
tRp325
sg32
F1
sg33
F0
sa(dp326
g30
g6
(g8
S'\x03)\\\x8f\xc2\xf5\xf4?'
tRp327
sg32
F1
sg33
F0
sa(dp328
g41
g6
(g8
S'\xbbG\xe1z\x14\xae\xf3?'
tRp329
sg43
F1
sg44
F0
sa(dp330
g5
g6
(g8
S'i\x8f\xc2\xf5(\\\xf3?'
tRp331
sg10
F1
sg11
F0
sas(F-0.27000000000000002
F-0.02
tp332
(lp333
(dp334
g5
g6
(g8
S'\xe8\xff\xff\xff\xff\xff\xdf\xbf'
tRp335
sg10
F3
sg11
F0
sa(dp336
g5
g6
(g8
S'n=\n\xd7\xa3p\xf5\xbf'
tRp337
sg10
F1
sg11
F0
sas(F-0.41999999999999998
F0.01
tp338
(lp339
(dp340
g133
g6
(g8
S'\xc0\x1c\x85\xebQ\xb8\x9e\xbf'
tRp341
sg135
F1
sg136
F-0.047500000000000001
sa(dp342
g5
g6
(g8
S'|\xebQ\xb8\x1e\x85\xeb\xbf'
tRp343
sg10
F64
sg11
F-0
sas(F-0.47999999999999998
F0.01
tp344
(lp345
(dp346
g133
g6
(g8
S'T\x8f\xc2\xf5(\\\xef\xbf'
tRp347
sg135
F20
sg136
F-0.0149
sas(F0.65000000000000002
F-0.02
tp348
(lp349
(dp350
g5
g6
(g8
S'~=\n\xd7\xa3p\xf5?'
tRp351
sg10
F39
sg11
F0
sa(dp352
g5
g6
(g8
S'\x14\x00\x00\x00\x00\x00\xe0?'
tRp353
sg10
F1
sg11
F0
sas(F-0.5
F0.01
tp354
(lp355
(dp356
g133
g6
(g8
S'N\xb8\x1e\x85\xebQ\xf0\xbf'
tRp357
sg135
F23
sg136
F-0.018100000000000002
sas(F-0.55000000000000004
F-0.01
tp358
(lp359
(dp360
g5
g117
sg10
F8
sg11
F0
sas(F0.92000000000000004
F0.46000000000000002
tp361
(lp362
(dp363
g5
g6
(g8
S'\x88=\n\xd7\xa3p\xed?'
tRp364
sg10
F1
sg11
F-0.050000000000000003
sa(dp365
g5
g17
sg10
F1
sg11
F-0.1769
sa(dp366
g5
g6
(g8
S'\x0f\x00\x00\x00\x00\x00\xfc?'
tRp367
sg10
F1
sg11
F-0.051200000000000002
sas(F0.35999999999999999
F-0.01
tp368
(lp369
(dp370
g5
g6
(g8
S' \x99\x99\x99\x99\x99\xb9\xbf'
tRp371
sg10
F178
sg11
F0
sa(dp372
g5
g6
(g8
S'\xba\xf5(\\\x8f\xc2\xed\xbf'
tRp373
sg10
F1
sg11
F0
sa(dp374
g5
g6
(g8
S'\xc4G\xe1z\x14\xae\xe7?'
tRp375
sg10
F1
sg11
F0
sa(dp376
g5
g6
(g8
S'@\x1e\x85\xebQ\xb8\xbe\xbf'
tRp377
sg10
F1
sg11
F0
sas(F-0.14000000000000001
F0.01
tp378
(lp379
(dp380
g21
g6
(g8
S'\x1833333\xd3\xbf'
tRp381
sg23
F402
sg24
F0
sa(dp382
g5
g6
(g8
S'\n)\\\x8f\xc2\xf5\xe0?'
tRp383
sg10
F1
sg11
F0
sas(F0.59999999999999998
F-0.01
tp384
(lp385
(dp386
g5
g6
(g8
S'x\xb8\x1e\x85\xebQ\xd8?'
tRp387
sg10
F324
sg11
F0
sa(dp388
g5
g6
(g8
S'\xb4\xcc\xcc\xcc\xcc\xcc\xdc\xbf'
tRp389
sg10
F1
sg11
F0
sa(dp390
g5
g6
(g8
S'\x92\xebQ\xb8\x1e\x85\xf3?'
tRp391
sg10
F1
sg11
F0
sa(dp392
g5
g6
(g8
S'0\xd7\xa3p=\n\xd7?'
tRp393
sg10
F1
sg11
F0
sas(F-0.40999999999999998
F-0.01
tp394
(lp395
(dp396
g133
g6
(g8
S'<\n\xd7\xa3p=\xfa\xbf'
tRp397
sg135
F1
sg136
F-0.045100000000000001
sa(dp398
g5
g6
(g8
S'\x90\x99\x99\x99\x99\x99\xe9\xbf'
tRp399
sg10
F73
sg11
F-0.00089999999999999998
sa(dp400
g5
g6
(g8
S'\x8e\xc2\xf5(\\\x8f\xfa\xbf'
tRp401
sg10
F33
sg11
F-0
sas(F0.67000000000000004
F0.01
tp402
(lp403
(dp404
g5
g6
(g8
S',\x85\xebQ\xb8\x1e\xf5?'
tRp405
sg10
F201
sg11
F0
sa(dp406
g5
g17
sg10
F1
sg11
F0
sas(F0.41999999999999998
F-0.01
tp407
(lp408
(dp409
g5
g317
sg10
F208
sg11
F0
sa(dp410
g5
g6
(g8
S'\xe2Q\xb8\x1e\x85\xeb\xe9\xbf'
tRp411
sg10
F1
sg11
F0
sa(dp412
g5
g6
(g8
S'\x9c\xebQ\xb8\x1e\x85\xeb?'
tRp413
sg10
F1
sg11
F0
sa(dp414
g5
g6
(g8
S'\x00\x00\x00\x00\x00\x00\xe0<'
tRp415
sg10
F1
sg11
F0
sas(F0.02
F0.02
tp416
(lp417
(dp418
g133
g6
(g8
S'\x00\x00\x00\x00\x00\x00\xe0<'
tRp419
sg135
F7
sg136
F1
sas(F0.31
F-0.01
tp420
(lp421
(dp422
g21
g6
(g8
S'\x90\x14\xaeG\xe1z\xe4?'
tRp423
sg23
F719
sg24
F-0.042500000000000003
sa(dp424
g30
g6
(g8
S'`\x14\xaeG\xe1z\xd4\xbf'
tRp425
sg32
F487
sg33
F-0.2092
sa(dp426
g41
g6
(g8
S'\xf0[\x8f\xc2\xf5(\xcc\xbf'
tRp427
sg43
F260
sg44
F-0.2001
sa(dp428
g5
g6
(g8
S'`\x99\x99\x99\x99\x99\xc9\xbf'
tRp429
sg10
F195
sg11
F-0.043200000000000002
sa(dp430
g5
g6
(g8
S'w\x14\xaeG\xe1z\xf0\xbf'
tRp431
sg10
F41
sg11
F-0.041000000000000002
sa(dp432
g5
g6
(g8
S'\x93\xebQ\xb8\x1e\x85\xf7?'
tRp433
sg10
F29
sg11
F-0.038899999999999997
sas(F0.77000000000000002
F0
tp434
(lp435
(dp436
g5
g6
(g8
S'|fffff\xe6?'
tRp437
sg10
F95
sg11
F0
sa(dp438
g5
g6
(g8
S'\xb2p=\n\xd7\xa3\xf8?'
tRp439
sg10
F1
sg11
F0
sa(dp440
g5
g17
sg10
F1
sg11
F0
sas(F-0.22
F-0.02
tp441
(lp442
(dp443
g5
g6
(g8
S'\x80\x99\x99\x99\x99\x99\xd9\xbf'
tRp444
sg10
F5
sg11
F0
sas(F0.92000000000000004
F0.73999999999999999
tp445
(lp446
(dp447
g5
g6
(g8
S'\x17\xd7\xa3p=\n\xf3?'
tRp448
sg10
F5
sg11
F-0.27410000000000001
sa(dp449
g5
g17
sg10
F2
sg11
F-0.40600000000000003
sa(dp450
g5
g393
sg10
F5
sg11
F-0.35289999999999999
sas(F-0.46000000000000002
F-0.01
tp451
(lp452
(dp453
g133
g6
(g8
S'\xc4\xcc\xcc\xcc\xcc\xcc\xec\xbf'
tRp454
sg135
F3
sg136
F-0.023599999999999999
sa(dp455
g5
g6
(g8
S'\xd6\xa3p=\n\xd7\xfb\xbf'
tRp456
sg10
F36
sg11
F-0.00089999999999999998
sas(F-0.14999999999999999
F-0.02
tp457
(lp458
(dp459
g5
g292
sg10
F11
sg11
F0
sa(dp460
g5
g6
(g8
S'\x96\x99\x99\x99\x99\x99\xf1\xbf'
tRp461
sg10
F1
sg11
F0
sas(F0.92000000000000004
F0.77000000000000002
tp462
(lp463
(dp464
g5
g6
(g8
S'X33333\xd3?'
tRp465
sg10
F2
sg11
F-0.23430000000000001
sa(dp466
g5
g17
sg10
F1
sg11
F-0.255
sa(dp467
g5
g269
sg10
F4
sg11
F-0.26690000000000003
sa(dp468
g5
g6
(g8
S'!\xaeG\xe1z\x14\xf2?'
tRp469
sg10
F3
sg11
F-0.22209999999999999
sas(F0.57999999999999996
F-0.02
tp470
(lp471
(dp472
g5
g6
(g8
S'@33333\xf3?'
tRp473
sg10
F55
sg11
F0
sa(dp474
g5
g6
(g8
S'\xfc\xadG\xe1z\x14\xde\xbf'
tRp475
sg10
F1
sg11
F0
sa(dp476
g5
g393
sg10
F1
sg11
F0
sas(F0.17000000000000001
F0
tp477
(lp478
(dp479
g21
g6
(g8
S'\xa0\x1e\x85\xebQ\xb8\xde\xbf'
tRp480
sg23
F8139
sg24
F0
sa(dp481
g21
g6
(g8
S'\xe8\xf5(\\\x8f\xc2\xd5?'
tRp482
sg23
F1
sg24
F0
sa(dp483
g30
g196
sg32
F1
sg33
F0
sa(dp484
g30
g219
sg32
F1
sg33
F0
sa(dp485
g30
g6
(g8
S'2\n\xd7\xa3p=\xe2\xbf'
tRp486
sg32
F1
sg33
F0
sa(dp487
g30
g6
(g8
S'(33333\xe3\xbf'
tRp488
sg32
F1
sg33
F0
sa(dp489
g30
g6
(g8
S'_\xb8\x1e\x85\xebQ\xf4?'
tRp490
sg32
F1
sg33
F0
sa(dp491
g41
g6
(g8
S'\xc5\x1e\x85\xebQ\xb8\xf2?'
tRp492
sg43
F1
sg44
F0
sa(dp493
g5
g6
(g8
S'E\xe1z\x14\xaeG\xf5\xbf'
tRp494
sg10
F1
sg11
F0
sas(F0.48999999999999999
F0
tp495
(lp496
(dp497
g5
g6
(g8
S'\n\xaeG\xe1z\x14\xe6\xbf'
tRp498
sg10
F1116
sg11
F0
sa(dp499
g5
g6
(g8
S'0R\xb8\x1e\x85\xeb\xc1?'
tRp500
sg10
F1
sg11
F0
sa(dp501
g5
g6
(g8
S'\x05)\\\x8f\xc2\xf5\xfc?'
tRp502
sg10
F1
sg11
F0
sa(dp503
g5
g6
(g8
S't\x8f\xc2\xf5(\\\xef?'
tRp504
sg10
F1
sg11
F0
sas(F0.01
F0
tp505
(lp506
(dp507
g21
g6
(g8
S'\x90\x99\x99\x99\x99\x99\xe9\xbf'
tRp508
sg23
F137
sg24
F0.81159999999999999
sa(dp509
g21
g229
sg23
F6608
sg24
F0.80989999999999995
sa(dp510
g21
g6
(g8
S'\xa6\xc2\xf5(\\\x8f\xea?'
tRp511
sg23
F130
sg24
F0.80940000000000001
sa(dp512
g30
g6
(g8
S'4\n\xd7\xa3p=\xea\xbf'
tRp513
sg32
F1020
sg33
F0.8075
sa(dp514
g30
g6
(g8
S'J33333\xeb?'
tRp515
sg32
F366
sg33
F0.77729999999999999
sa(dp516
g30
g6
(g8
S'\xee\xa3p=\n\xd7\xeb?'
tRp517
sg32
F12
sg33
F0.81000000000000005
sa(dp518
g30
g6
(g8
S'\xd8z\x14\xaeG\xe1\xea\xbf'
tRp519
sg32
F24
sg33
F0.81340000000000001
sa(dp520
g30
g6
(g8
S'\x92\x14\xaeG\xe1z\xec?'
tRp521
sg32
F31
sg33
F0.81230000000000002
sa(dp522
g30
g6
(g8
S'\xce\xa3p=\n\xd7\xeb\xbf'
tRp523
sg32
F33
sg33
F0.81269999999999998
sa(dp524
g30
g6
(g8
S'r\x14\xaeG\xe1z\xec\xbf'
tRp525
sg32
F81
sg33
F1
sa(dp526
g30
g6
(g8
S'\x88=\n\xd7\xa3p\xed?'
tRp527
sg32
F74
sg33
F0.80620000000000003
sa(dp528
g30
g6
(g8
S'h=\n\xd7\xa3p\xed\xbf'
tRp529
sg32
F426
sg33
F0.81310000000000004
sa(dp530
g30
g233
sg32
F216
sg33
F0.80679999999999996
sa(dp531
g5
g6
(g8
S'efffff\xfa\xbf'
tRp532
sg10
F1
sg11
F0.21199999999999999
sa(dp533
g5
g6
(g8
S'\x19\xd7\xa3p=\n\xfb?'
tRp534
sg10
F1
sg11
F0.024400000000000002
sas(F0.32000000000000001
F0.46999999999999997
tp535
(lp536
(dp537
g30
g6
(g8
S'\x1833333\xd3\xbf'
tRp538
sg32
F6
sg33
F-0.38069999999999998
sas(F0.76000000000000001
F-0.02
tp539
(lp540
(dp541
g5
g6
(g8
S' \xd7\xa3p=\n\xe7?'
tRp542
sg10
F8
sg11
F0
sa(dp543
g5
g6
(g8
S'\x04)\\\x8f\xc2\xf5\xf8?'
tRp544
sg10
F1
sg11
F0
sa(dp545
g5
g6
(g8
S'\xf823333\xc3\xbf'
tRp546
sg10
F1
sg11
F0
sas(F-0.33000000000000002
F-0.01
tp547
(lp548
(dp549
g133
g6
(g8
S'p\x14\xaeG\xe1z\xe4\xbf'
tRp550
sg135
F5
sg136
F-0.00089999999999999998
sa(dp551
g5
g6
(g8
S'\xacG\xe1z\x14\xae\xf7\xbf'
tRp552
sg10
F211
sg11
F0
sa(dp553
g5
g6
(g8
S'\xfe\xff\xff\xff\xff\xff\xf7\xbf'
tRp554
sg10
F1
sg11
F-0
sas(F0.92000000000000004
F0.60999999999999999
tp555
(lp556
(dp557
g5
g6
(g8
S'\xec\xa3p=\n\xd7\xe3?'
tRp558
sg10
F1
sg11
F-0.050000000000000003
sa(dp559
g5
g17
sg10
F1
sg11
F-0.093299999999999994
sas(F0.81000000000000005
F-0.02
tp560
(lp561
(dp562
g5
g6
(g8
S'\x9e\xc2\xf5(\\\x8f\xfa?'
tRp563
sg10
F2
sg11
F0
sa(dp564
g5
g6
(g8
S'T\n\xd7\xa3p=\xea?'
tRp565
sg10
F1
sg11
F0
sas(F-0.54000000000000004
F0.01
tp566
(lp567
(dp568
g5
g461
sg10
F7
sg11
F0
sas(F-0.23999999999999999
F0
tp569
(lp570
(dp571
g30
g6
(g8
S'\xb6\x1e\x85\xebQ\xb8\xf6\xbf'
tRp572
sg32
F507
sg33
F0
sa(dp573
g30
g69
sg32
F1
sg33
F0
sa(dp574
g5
g6
(g8
S'\x1c\x85\xebQ\xb8\x1e\xf5\xbf'
tRp575
sg10
F1
sg11
F0
sa(dp576
g5
g6
(g8
S'\x8cfffff\xd6?'
tRp577
sg10
F1
sg11
F0
sa(dp578
g5
g261
sg10
F1
sg11
F0
sas(F-0.45000000000000001
F-0.01
tp579
(lp580
(dp581
g133
g6
(g8
S' \\\x8f\xc2\xf5(\xec\xbf'
tRp582
sg135
F3
sg136
F-0.022599999999999999
sa(dp583
g5
g6
(g8
S'\x84\xebQ\xb8\x1e\x85\xfb\xbf'
tRp584
sg10
F46
sg11
F-0
sas(F0.92000000000000004
F0.20999999999999999
tp585
(lp586
(dp587
g5
g6
(g8
S'\xc6\x1e\x85\xebQ\xb8\xf6?'
tRp588
sg10
F4
sg11
F-0.26440000000000002
sas(F0.12
F0
tp589
(lp590
(dp591
g21
g6
(g8
S'\x84\xc2\xf5(\\\x8f\xe2\xbf'
tRp592
sg23
F6486
sg24
F0.00020000000000000001
sa(dp593
g21
g6
(g8
S'\x00\x1f\x85\xebQ\xb8\xce?'
tRp594
sg23
F306
sg24
F0.0012999999999999999
sa(dp595
g30
g488
sg32
F1
sg33
F0.00059999999999999995
sa(dp596
g30
g6
(g8
S'\xcc\xa3p=\n\xd7\xe3\xbf'
tRp597
sg32
F1
sg33
F0
sa(dp598
g30
g6
(g8
S'f=\n\xd7\xa3p\xe5\xbf'
tRp599
sg32
F1
sg33
F0
sa(dp600
g30
g6
(g8
S'\\fffff\xe6\xbf'
tRp601
sg32
F1
sg33
F0
sa(dp602
g30
g6
(g8
S'\xc5\x1e\x85\xebQ\xb8\xf2?'
tRp603
sg32
F1
sg33
F0
sa(dp604
g41
g6
(g8
S'+\x85\xebQ\xb8\x1e\xf1?'
tRp605
sg43
F1
sg44
F0
sa(dp606
g5
g6
(g8
S'\xdfz\x14\xaeG\xe1\xf6\xbf'
tRp607
sg10
F59
sg11
F0.00040000000000000002
sas(F-0.28000000000000003
F0
tp608
(lp609
(dp610
g30
g6
(g8
S'\xfe\xff\xff\xff\xff\xff\xf7\xbf'
tRp611
sg32
F664
sg33
F0
sa(dp612
g41
g6
(g8
S'\xe0Q\xb8\x1e\x85\xeb\xe1\xbf'
tRp613
sg43
F1
sg44
F0
sa(dp614
g5
g6
(g8
S'dfffff\xf6\xbf'
tRp615
sg10
F1
sg11
F0
sa(dp616
g5
g6
(g8
S'l\xe1z\x14\xaeG\xd1?'
tRp617
sg10
F1
sg11
F0
sa(dp618
g5
g261
sg10
F1
sg11
F0
sas(F0.33000000000000002
F0.01
tp619
(lp620
(dp621
g5
g6
(g8
S'\x90\x14\xaeG\xe1z\xe4?'
tRp622
sg10
F180
sg11
F-0
sa(dp623
g5
g433
sg10
F1
sg11
F-0
sas(F0.92000000000000004
F0.90000000000000002
tp624
(lp625
(dp626
g5
g6
(g8
S'\x80\x15\xaeG\xe1z\xa4?'
tRp627
sg10
F1
sg11
F-0.69520000000000004
sa(dp628
g5
g17
sg10
F1
sg11
F-1.1874
sa(dp629
g5
g6
(g8
S'\xee\xa3p=\n\xd7\xeb?'
tRp630
sg10
F8
sg11
F-0.50149999999999995
sas(F-0.34000000000000002
F-0.02
tp631
(lp632
(dp633
g5
g6
(g8
S'p\x14\xaeG\xe1z\xe4\xbf'
tRp634
sg10
F1
sg11
F0
sas(F-0.38
F0.01
tp635
(lp636
(dp637
g133
g6
(g8
S'\xa0\x9a\x99\x99\x99\x99\xa9?'
tRp638
sg135
F2
sg136
F-0.045100000000000001
sa(dp639
g5
g6
(g8
S'\xec(\\\x8f\xc2\xf5\xe8\xbf'
tRp640
sg10
F135
sg11
F0
sa(dp641
g5
g6
(g8
S'pR\xb8\x1e\x85\xeb\xb1?'
tRp642
sg10
F1
sg11
F0
sas(F0.92000000000000004
F0.93999999999999995
tp643
(lp644
(dp645
g5
g6
(g8
S'\x80\x13\xaeG\xe1z\xa4\xbf'
tRp646
sg10
F4
sg11
F-0.59350000000000003
sa(dp647
g5
g17
sg10
F1
sg11
F-0.77159999999999995
sa(dp648
g5
g6
(g8
S'^\xe1z\x14\xaeG\xe9?'
tRp649
sg10
F9
sg11
F-0.6028
sas(F0.92000000000000004
F0.62
tp650
(lp651
(dp652
g5
g6
(g8
S'H33333\xe3?'
tRp653
sg10
F2
sg11
F-0.13800000000000001
sas(F0.32000000000000001
F0.42999999999999999
tp654
(lp655
(dp656
g30
g6
(g8
S'\xf0[\x8f\xc2\xf5(\xcc\xbf'
tRp657
sg32
F10
sg33
F-0.59109999999999996
sas(F-0.01
F0
tp658
(lp659
(dp660
g21
g6
(g8
S'\xd8z\x14\xaeG\xe1\xea\xbf'
tRp661
sg23
F92
sg24
F0.83379999999999999
sa(dp662
g21
g6
(g8
S'\x80\x12\xaeG\xe1z\x94\xbf'
tRp663
sg23
F4520
sg24
F0.83950000000000002
sa(dp664
g21
g6
(g8
S'^\xe1z\x14\xaeG\xe9?'
tRp665
sg23
F70
sg24
F0.84330000000000005
sa(dp666
g30
g6
(g8
S'|\xebQ\xb8\x1e\x85\xeb\xbf'
tRp667
sg32
F800
sg33
F0.84440000000000004
sa(dp668
g30
g6
(g8
S'\x02R\xb8\x1e\x85\xeb\xe9?'
tRp669
sg32
F319
sg33
F0.74209999999999998
sa(dp670
g30
g6
(g8
S'\xa6\xc2\xf5(\\\x8f\xea?'
tRp671
sg32
F46
sg33
F0.84309999999999996
sa(dp672
g30
g6
(g8
S' \\\x8f\xc2\xf5(\xec\xbf'
tRp673
sg32
F53
sg33
F0.83660000000000001
sa(dp674
g30
g6
(g8
S'\xf8z\x14\xaeG\xe1\xea?'
tRp675
sg32
F81
sg33
F0.97499999999999998
sa(dp676
g30
g6
(g8
S'\xba\xf5(\\\x8f\xc2\xed\xbf'
tRp677
sg32
F33
sg33
F0.84219999999999995
sa(dp678
g30
g6
(g8
S'@\\\x8f\xc2\xf5(\xec?'
tRp679
sg32
F44
sg33
F0.84119999999999995
sa(dp680
g30
g6
(g8
S'\xb0\x1e\x85\xebQ\xb8\xee\xbf'
tRp681
sg32
F469
sg33
F0.84230000000000005
sa(dp682
g30
g6
(g8
S'6\x85\xebQ\xb8\x1e\xed?'
tRp683
sg32
F141
sg33
F0.84379999999999999
sa(dp684
g5
g6
(g8
S'\t\xd7\xa3p=\n\xfb\xbf'
tRp685
sg10
F1
sg11
F0.2344
sa(dp686
g5
g6
(g8
S'ufffff\xfa?'
tRp687
sg10
F1
sg11
F0.025000000000000001
sas(F0.17999999999999999
F-0.01
tp688
(lp689
(dp690
g21
g6
(g8
S'x\xb8\x1e\x85\xebQ\xd8?'
tRp691
sg23
F1417
sg24
F0
sa(dp692
g30
g6
(g8
S'\xe0Q\xb8\x1e\x85\xeb\xe1\xbf'
tRp693
sg32
F1
sg33
F0
sa(dp694
g30
g6
(g8
S'\x84\xc2\xf5(\\\x8f\xe2\xbf'
tRp695
sg32
F1
sg33
F0
sa(dp696
g41
g6
(g8
S'\xa0\x1e\x85\xebQ\xb8\xde\xbf'
tRp697
sg43
F1
sg44
F0
sa(dp698
g5
g6
(g8
S'X=\n\xd7\xa3p\xdd\xbf'
tRp699
sg10
F1
sg11
F0
sa(dp700
g5
g6
(g8
S'\xa1p=\n\xd7\xa3\xf4\xbf'
tRp701
sg10
F1
sg11
F0
sas(F0.32000000000000001
F0.23999999999999999
tp702
(lp703
(dp704
g30
g6
(g8
S'\xc0\x14\xaeG\xe1z\xc4?'
tRp705
sg32
F6
sg33
F-0.71140000000000003
sa(dp706
g30
g97
sg32
F5
sg33
F-0.89390000000000003
sa(dp707
g41
g6
(g8
S'\xc6G\xe1z\x14\xae\xef?'
tRp708
sg43
F1
sg44
F-0.066000000000000003
sas(F0.58999999999999997
F0.01
tp709
(lp710
(dp711
g5
g6
(g8
S'\x9c\xc2\xf5(\\\x8f\xf2?'
tRp712
sg10
F196
sg11
F0
sa(dp713
g5
g17
sg10
F1
sg11
F0
sas(F-0.050000000000000003
F-0.01
tp714
(lp715
(dp716
g21
g6
(g8
S'\x00\x14\xaeG\xe1z\xb4\xbf'
tRp717
sg23
F546
sg24
F0.27789999999999998
sa(dp718
g21
g6
(g8
S'h=\n\xd7\xa3p\xed\xbf'
tRp719
sg23
F32
sg24
F0.26829999999999998
sa(dp720
g30
g35
sg32
F1
sg33
F0.17979999999999999
sa(dp721
g41
g6
(g8
S'\x0c\xaeG\xe1z\x14\xee\xbf'
tRp722
sg43
F1
sg44
F0.2591
sa(dp723
g5
g6
(g8
S'\xff\xff\xff\xff\xff\xff\xfb\xbf'
tRp724
sg10
F69
sg11
F0.72989999999999999
sas(F0.92000000000000004
F0.47999999999999998
tp725
(lp726
(dp727
g5
g6
(g8
S'@\\\x8f\xc2\xf5(\xec?'
tRp728
sg10
F2
sg11
F-0.13719999999999999
sa(dp729
g5
g6
(g8
S'k\x8f\xc2\xf5(\\\xfb?'
tRp730
sg10
F2
sg11
F-0.1021
sa(dp731
g5
g17
sg10
F2
sg11
F-0.1787
sas(F-0.25
F-0.02
tp732
(lp733
(dp734
g133
g6
(g8
S'X=\n\xd7\xa3p\xdd\xbf'
tRp735
sg135
F6
sg136
F0
sas(F0.40000000000000002
F0
tp736
(lp737
(dp738
g5
g6
(g8
S'\xce\xa3p=\n\xd7\xeb\xbf'
tRp739
sg10
F618
sg11
F0
sa(dp740
g5
g646
sg10
F1
sg11
F0
sa(dp741
g5
g6
(g8
S'#\xaeG\xe1z\x14\xfa?'
tRp742
sg10
F1
sg11
F0
sa(dp743
g5
g6
(g8
S'\xb0\x99\x99\x99\x99\x99\xe9?'
tRp744
sg10
F1
sg11
F0
sas(F0.46000000000000002
F-0.029999999999999999
tp745
(lp746
(dp747
g5
g500
sg10
F1
sg11
F0
sas(F-0.12
F0
tp748
(lp749
(dp750
g21
g6
(g8
S'\xf2(\\\x8f\xc2\xf5\xf0\xbf'
tRp751
sg23
F1728
sg24
F0.00040000000000000002
sa(dp752
g21
g6
(g8
S'\x80\x1e\x85\xebQ\xb8\xce\xbf'
tRp753
sg23
F1
sg24
F0
sa(dp754
g21
g6
(g8
S'R\n\xd7\xa3p=\xe2?'
tRp755
sg23
F1
sg24
F0
sa(dp756
g30
g6
(g8
S'\xdez\x14\xaeG\xe1\xf2\xbf'
tRp757
sg32
F1
sg33
F0
sa(dp758
g30
g6
(g8
S'*\xaeG\xe1z\x14\xe6?'
tRp759
sg32
F1
sg33
F0
sa(dp760
g41
g6
(g8
S'D\xe1z\x14\xaeG\xf1\xbf'
tRp761
sg43
F1
sg44
F0
sa(dp762
g41
g6
(g8
S'\xf6z\x14\xaeG\xe1\xe2?'
tRp763
sg43
F1
sg44
F0.00020000000000000001
sa(dp764
g5
g6
(g8
S'\x8f\xc2\xf5(\\\x8f\xfe\xbf'
tRp765
sg10
F1
sg11
F0
sas(F-0.22
F0
tp766
(lp767
(dp768
g30
g6
(g8
S'\x12\xaeG\xe1z\x14\xf6\xbf'
tRp769
sg32
F459
sg33
F0
sa(dp770
g30
g79
sg32
F1
sg33
F0
sa(dp771
g30
g6
(g8
S'\x84\x8f\xc2\xf5(\\\xdf?'
tRp772
sg32
F1
sg33
F0
sa(dp773
g5
g6
(g8
S'x\x14\xaeG\xe1z\xf4\xbf'
tRp774
sg10
F1
sg11
F0
sa(dp775
g5
g81
sg10
F1
sg11
F0
sas(F0.16
F-0.02
tp776
(lp777
(dp778
g5
g393
sg10
F41
sg11
F0
sa(dp779
g5
g6
(g8
S'\xa0\x1e\x85\xebQ\xb8\xde\xbf'
tRp780
sg10
F1
sg11
F0
sas(F-0.45000000000000001
F0.01
tp781
(lp782
(dp783
g133
g6
(g8
S'h=\n\xd7\xa3p\xed\xbf'
tRp784
sg135
F8
sg136
F-0.022100000000000002
sa(dp785
g5
g6
(g8
S'pQ\xb8\x1e\x85\xeb\xb1\xbf'
tRp786
sg10
F38
sg11
F-0
sas(F0.82999999999999996
F0.01
tp787
(lp788
(dp789
g5
g6
(g8
S'L\n\xd7\xa3p=\xfa?'
tRp790
sg10
F1
sg11
F0
sas(F0.88
F-0.01
tp791
(lp792
(dp793
g5
g6
(g8
S'\x8a\x14\xaeG\xe1z\xfc?'
tRp794
sg10
F230
sg11
F-0.050000000000000003
sa(dp795
g5
g364
sg10
F29
sg11
F0
sa(dp796
g5
g6
(g8
S',\xaeG\xe1z\x14\xee?'
tRp797
sg10
F1
sg11
F0
sas(F0
F-0.01
tp798
(lp799
(dp800
g21
g229
sg23
F558
sg24
F0.79879999999999995
sa(dp801
g21
g508
sg23
F161
sg24
F0.79369999999999996
sa(dp802
g30
g6
(g8
S'\x0c\xaeG\xe1z\x14\xee\xbf'
tRp803
sg32
F45
sg33
F0.79720000000000002
sa(dp804
g30
g529
sg32
F13
sg33
F0.7923
sa(dp805
g41
g6
(g8
S'\xd8z\x14\xaeG\xe1\xea\xbf'
tRp806
sg43
F58
sg44
F0.80110000000000003
sa(dp807
g41
g6
(g8
S'4\n\xd7\xa3p=\xea\xbf'
tRp808
sg43
F23
sg44
F0.77910000000000001
sa(dp809
g5
g532
sg10
F26
sg11
F1
sas(F0.73999999999999999
F-0.02
tp810
(lp811
(dp812
g5
g6
(g8
S'`\xb8\x1e\x85\xebQ\xf8?'
tRp813
sg10
F10
sg11
F0
sa(dp814
g5
g6
(g8
S'\xd8\xf5(\\\x8f\xc2\xe5?'
tRp815
sg10
F1
sg11
F0
sas(F0.089999999999999997
F-0.01
tp816
(lp817
(dp818
g21
g6
(g8
S'\xe0\x99\x99\x99\x99\x99\xc9?'
tRp819
sg23
F641
sg24
F0.0161
sa(dp820
g30
g6
(g8
S'H\xb8\x1e\x85\xebQ\xe8\xbf'
tRp821
sg32
F1
sg33
F0
sa(dp822
g30
g6
(g8
S'\xa4G\xe1z\x14\xae\xe7\xbf'
tRp823
sg32
F1
sg33
F0
sa(dp824
g41
g6
(g8
S'p\x14\xaeG\xe1z\xe4\xbf'
tRp825
sg43
F245
sg44
F0.032000000000000001
sa(dp826
g41
g6
(g8
S'\x14\x85\xebQ\xb8\x1e\xe5\xbf'
tRp827
sg43
F1
sg44
F0.00059999999999999995
sa(dp828
g5
g6
(g8
S'\x83\xebQ\xb8\x1e\x85\xf7\xbf'
tRp829
sg10
F1
sg11
F0.0137
sas(F0.37
F0
tp830
(lp831
(dp832
g5
g373
sg10
F636
sg11
F0
sa(dp833
g5
g371
sg10
F1
sg11
F0
sa(dp834
g5
g6
(g8
S'-\x85\xebQ\xb8\x1e\xf9?'
tRp835
sg10
F1
sg11
F0
sa(dp836
g5
g375
sg10
F1
sg11
F0
sas(F0.81000000000000005
F0
tp837
(lp838
(dp839
g5
g6
(g8
S'\x0c)\\\x8f\xc2\xf5\xe8?'
tRp840
sg10
F97
sg11
F0
sas(F0.47999999999999998
F-0.01
tp841
(lp842
(dp843
g5
g500
sg10
F233
sg11
F0
sa(dp844
g5
g498
sg10
F1
sg11
F0
sa(dp845
g5
g504
sg10
F1
sg11
F0
sas(F-0.080000000000000002
F0.02
tp846
(lp847
(dp848
g5
g6
(g8
S'>\\\x8f\xc2\xf5(\xe4?'
tRp849
sg10
F6
sg11
F0.0077999999999999996
sa(dp850
g5
g429
sg10
F1
sg11
F0.0028999999999999998
sas(F-0.40000000000000002
F-0.02
tp851
(lp852
(dp853
g5
g6
(g8
S'H\xb8\x1e\x85\xebQ\xe8\xbf'
tRp854
sg10
F1
sg11
F-0
sas(F0.10000000000000001
F0.02
tp855
(lp856
(dp857
g5
g15
sg10
F1
sg11
F0
sas(F0.47999999999999998
F0
tp858
(lp859
(dp860
g5
g6
(g8
S'\xae\x1e\x85\xebQ\xb8\xe6\xbf'
tRp861
sg10
F1029
sg11
F0
sa(dp862
g5
g6
(g8
S'\xd0\x1e\x85\xebQ\xb8\xee?'
tRp863
sg10
F1
sg11
F0
sa(dp864
g5
g6
(g8
S'@\x1f\x85\xebQ\xb8\xbe?'
tRp865
sg10
F1
sg11
F0
sa(dp866
g5
g6
(g8
S'\xb3p=\n\xd7\xa3\xfc?'
tRp867
sg10
F1
sg11
F0
sas(F-0.28999999999999998
F-0.02
tp868
(lp869
(dp870
g5
g267
sg10
F3
sg11
F0
sas(F-0.11
F0.01
tp871
(lp872
(dp873
g21
g753
sg23
F504
sg24
F0.0018
sa(dp874
g5
g6
(g8
S'\xf6z\x14\xaeG\xe1\xe2?'
tRp875
sg10
F1
sg11
F0.0011000000000000001
sa(dp876
g5
g6
(g8
S'\x9a\xebQ\xb8\x1e\x85\xe3?'
tRp877
sg10
F1
sg11
F0
sas(F0.32000000000000001
F0.33000000000000002
tp878
(lp879
(dp880
g30
g6
(g8
S'\x80\x12\xaeG\xe1z\x94\xbf'
tRp881
sg32
F9
sg33
F-0.90410000000000001
sa(dp882
g30
g97
sg32
F2
sg33
F-0.88290000000000002
sa(dp883
g41
g6
(g8
S'|\xebQ\xb8\x1e\x85\xeb\xbf'
tRp884
sg43
F10
sg44
F-0.64019999999999999
sas(F-0.25
F-0.01
tp885
(lp886
(dp887
g30
g69
sg32
F258
sg33
F0
sa(dp888
g5
g575
sg10
F1
sg11
F0
sa(dp889
g5
g337
sg10
F1
sg11
F0
sa(dp890
g5
g261
sg10
F1
sg11
F0
sas(F-0.48999999999999999
F0
tp891
(lp892
(dp893
g133
g6
(g8
S'\x1e\x85\xebQ\xb8\x1e\xfd\xbf'
tRp894
sg135
F6
sg136
F-0.1153
sa(dp895
g5
g6
(g8
S'T\x8f\xc2\xf5(\\\xef\xbf'
tRp896
sg10
F18
sg11
F-0.0083000000000000001
sa(dp897
g5
g546
sg10
F81
sg11
F-0.0057999999999999996
sas(F0.92000000000000004
F0.88
tp898
(lp899
(dp900
g5
g6
(g8
S'\x00\x15\xaeG\xe1z\xb4?'
tRp901
sg10
F5
sg11
F-0.33850000000000002
sa(dp902
g5
g17
sg10
F1
sg11
F-0.38769999999999999
sa(dp903
g5
g6
(g8
S'6\x85\xebQ\xb8\x1e\xed?'
tRp904
sg10
F5
sg11
F-0.28289999999999998
sas(F0.69999999999999996
F-0.01
tp905
(lp906
(dp907
g5
g588
sg10
F277
sg11
F0
sa(dp908
g5
g6
(g8
S'\xa4\xc2\xf5(\\\x8f\xe2?'
tRp909
sg10
F1
sg11
F0
sa(dp910
g5
g6
(g8
S'\xc8\xff\xff\xff\xff\xff\xcf\xbf'
tRp911
sg10
F1
sg11
F0
sas(F-0.14999999999999999
F0.01
tp912
(lp913
(dp914
g30
g425
sg32
F376
sg33
F0
sa(dp915
g5
g383
sg10
F1
sg11
F0
sa(dp916
g5
g6
(g8
S'f\xb8\x1e\x85\xebQ\xe0?'
tRp917
sg10
F1
sg11
F0
sa(dp918
g5
g6
(g8
S'\xa7\x99\x99\x99\x99\x99\xf5?'
tRp919
sg10
F1
sg11
F0
sas(F0.92000000000000004
F0.51000000000000001
tp920
(lp921
(dp922
g5
g565
sg10
F3
sg11
F-0.14630000000000001
sa(dp923
g5
g17
sg10
F2
sg11
F-0.17430000000000001
sa(dp924
g5
g6
(g8
S'\x80\x12\xaeG\xe1z\x94\xbf'
tRp925
sg10
F3
sg11
F-0.2225
sas(F-0.050000000000000003
F-0.02
tp926
(lp927
(dp928
g5
g6
(g8
S'\xc0\x1d\x85\xebQ\xb8\xae\xbf'
tRp929
sg10
F3
sg11
F0.22339999999999999
sa(dp930
g5
g6
(g8
S'\xc4\xcc\xcc\xcc\xcc\xcc\xec\xbf'
tRp931
sg10
F25
sg11
F0.84240000000000004
sa(dp932
g5
g6
(g8
S'Q\xb8\x1e\x85\xebQ\xfc\xbf'
tRp933
sg10
F1
sg11
F0.0016000000000000001
sas(F0.11
F-0.02
tp934
(lp935
(dp936
g5
g6
(g8
S'\xc8p=\n\xd7\xa3\xd0?'
tRp937
sg10
F36
sg11
F0.0038999999999999998
sa(dp938
g5
g6
(g8
S'\x84\xc2\xf5(\\\x8f\xe2\xbf'
tRp939
sg10
F1
sg11
F0.00050000000000000001
sa(dp940
g5
g6
(g8
S'\x8d\xc2\xf5(\\\x8f\xf6\xbf'
tRp941
sg10
F1
sg11
F0
sas(F0.25
F-0.01
tp942
(lp943
(dp944
g21
g6
(g8
S'\xb8p=\n\xd7\xa3\xe0?'
tRp945
sg23
F1857
sg24
F0
sa(dp946
g30
g79
sg32
F1
sg33
F0
sa(dp947
g41
g6
(g8
S'\xa8\xf5(\\\x8f\xc2\xd5\xbf'
tRp948
sg43
F1
sg44
F0
sa(dp949
g5
g6
(g8
S'cfffff\xf2\xbf'
tRp950
sg10
F1
sg11
F0
sa(dp951
g5
g144
sg10
F1
sg11
F0
sas(F0.44
F0
tp952
(lp953
(dp954
g5
g6
(g8
S'>\xe1z\x14\xaeG\xe9\xbf'
tRp955
sg10
F816
sg11
F0
sa(dp956
g5
g627
sg10
F1
sg11
F0
sa(dp957
g5
g728
sg10
F1
sg11
F0
sa(dp958
g5
g730
sg10
F1
sg11
F0
sas(F0.92000000000000004
F0.92000000000000004
tp959
(lp960
(dp961
g5
g415
sg10
F9
sg11
F-1.1063000000000001
sa(dp962
g5
g17
sg10
F1
sg11
F-1.2613000000000001
sa(dp963
g5
g6
(g8
S'\xa6\xc2\xf5(\\\x8f\xea?'
tRp964
sg10
F6
sg11
F-0.4073
sas(F0.27000000000000002
F-0.01
tp965
(lp966
(dp967
g21
g6
(g8
S'\x00R\xb8\x1e\x85\xeb\xe1?'
tRp968
sg23
F579
sg24
F-0.00089999999999999998
sa(dp969
g30
g65
sg32
F1259
sg33
F0
sa(dp970
g41
g6
(g8
S'\x1833333\xd3\xbf'
tRp971
sg43
F1
sg44
F0
sa(dp972
g5
g6
(g8
S'\xbf\xf5(\\\x8f\xc2\xf1\xbf'
tRp973
sg10
F1
sg11
F0
sa(dp974
g5
g6
(g8
S'\xd0Q\xb8\x1e\x85\xeb\xd1\xbf'
tRp975
sg10
F1
sg11
F0
sas(F0.58999999999999997
F0
tp976
(lp977
(dp978
g5
g6
(g8
S'D\x8f\xc2\xf5(\\\xdf\xbf'
tRp979
sg10
F1639
sg11
F0
sa(dp980
g5
g6
(g8
S'\xe8\xf5(\\\x8f\xc2\xd5?'
tRp981
sg10
F1
sg11
F0
sa(dp982
g5
g17
sg10
F1
sg11
F0
sa(dp983
g5
g6
(g8
S'\xeez\x14\xaeG\xe1\xf2?'
tRp984
sg10
F1
sg11
F0
sas(F-0.25
F0.01
tp985
(lp986
(dp987
g30
g219
sg32
F250
sg33
F0
sa(dp988
g5
g6
(g8
S'D\x85\xebQ\xb8\x1e\xd5?'
tRp989
sg10
F1
sg11
F0
sa(dp990
g5
g6
(g8
S'\xfc\xa3p=\n\xd7\xd3?'
tRp991
sg10
F1
sg11
F0
sas(F0.34000000000000002
F0.01
tp992
(lp993
(dp994
g5
g6
(g8
S'4\x85\xebQ\xb8\x1e\xe5?'
tRp995
sg10
F165
sg11
F0
sa(dp996
g5
g6
(g8
S'\xe5\xa3p=\n\xd7\xf7?'
tRp997
sg10
F1
sg11
F0
sas(F-0.050000000000000003
F0.01
tp998
(lp999
(dp1000
g21
g6
(g8
S'@\x1e\x85\xebQ\xb8\xbe\xbf'
tRp1001
sg23
F528
sg24
F0.58199999999999996
sa(dp1002
g30
g671
sg32
F1
sg33
F0.26500000000000001
sa(dp1003
g30
g669
sg32
F1
sg33
F0.18029999999999999
sa(dp1004
g41
g6
(g8
S'r\x8f\xc2\xf5(\\\xe7?'
tRp1005
sg43
F1
sg44
F0.19600000000000001
sa(dp1006
g5
g6
(g8
S'\xce\x1e\x85\xebQ\xb8\xe6?'
tRp1007
sg10
F107
sg11
F0.84109999999999996
sa(dp1008
g5
g6
(g8
S'\xdb\xcc\xcc\xcc\xcc\xcc\xf8?'
tRp1009
sg10
F1
sg11
F0.070300000000000001
sas(F0.92000000000000004
F0.85999999999999999
tp1010
(lp1011
(dp1012
g5
g6
(g8
S'\x00\xd7\xa3p=\n\xe7\xbf'
tRp1013
sg10
F3
sg11
F-0.14630000000000001
sa(dp1014
g5
g17
sg10
F1
sg11
F-0.25569999999999998
sa(dp1015
g5
g865
sg10
F2
sg11
F-0.18679999999999999
sa(dp1016
g5
g6
(g8
S'~fffff\xee?'
tRp1017
sg10
F2
sg11
F-0.14050000000000001
sas(F-0.45000000000000001
F0
tp1018
(lp1019
(dp1020
g133
g6
(g8
S'\xd6\xa3p=\n\xd7\xfb\xbf'
tRp1021
sg135
F1
sg136
F-0.027799999999999998
sa(dp1022
g5
g931
sg10
F2
sg11
F-0.001
sa(dp1023
g5
g786
sg10
F430
sg11
F-0.0001
sas(F0.60999999999999999
F-0.02
tp1024
(lp1025
(dp1026
g5
g6
(g8
S'$\n\xd7\xa3p=\xda\xbf'
tRp1027
sg10
F50
sg11
F0
sa(dp1028
g5
g6
(g8
S'\x08{\x14\xaeG\xe1\xda?'
tRp1029
sg10
F1
sg11
F0
sa(dp1030
g5
g6
(g8
S'6\\\x8f\xc2\xf5(\xf4?'
tRp1031
sg10
F1
sg11
F0
sas(F0.64000000000000001
F-0.02
tp1032
(lp1033
(dp1034
g5
g6
(g8
S'\xe0\x1e\x85\xebQ\xb8\xde?'
tRp1035
sg10
F48
sg11
F0
sa(dp1036
g5
g405
sg10
F1
sg11
F0
sas(F0.53000000000000003
F-0.01
tp1037
(lp1038
(dp1039
g5
g6
(g8
S'\xd6z\x14\xaeG\xe1\xe2\xbf'
tRp1040
sg10
F282
sg11
F0
sa(dp1041
g5
g6
(g8
S'p\\\x8f\xc2\xf5(\xcc?'
tRp1042
sg10
F1
sg11
F0
sa(dp1043
g5
g6
(g8
S'\x00\x1f\x85\xebQ\xb8\xce?'
tRp1044
sg10
F1
sg11
F0
sa(dp1045
g5
g6
(g8
S'T\xe1z\x14\xaeG\xf1?'
tRp1046
sg10
F1
sg11
F0
sas(F0.38
F-0.02
tp1047
(lp1048
(dp1049
g5
g646
sg10
F44
sg11
F0
sa(dp1050
g5
g744
sg10
F1
sg11
F0
sa(dp1051
g5
g739
sg10
F1
sg11
F0
sas(F-0.070000000000000007
F0
tp1052
(lp1053
(dp1054
g21
g6
(g8
S'\xb0\x1e\x85\xebQ\xb8\xee\xbf'
tRp1055
sg23
F2
sg24
F0
sa(dp1056
g21
g6
(g8
S'\xb0Q\xb8\x1e\x85\xeb\xc1\xbf'
tRp1057
sg23
F1636
sg24
F0.051700000000000003
sa(dp1058
g21
g6
(g8
S'\x86=\n\xd7\xa3p\xe5?'
tRp1059
sg23
F1
sg24
F0
sa(dp1060
g30
g6
(g8
S'\xa6G\xe1z\x14\xae\xef\xbf'
tRp1061
sg32
F1
sg33
F0
sa(dp1062
g30
g6
(g8
S'\xce\x1e\x85\xebQ\xb8\xe6?'
tRp1063
sg32
F1
sg33
F0
sa(dp1064
g30
g6
(g8
S'\xf8\xff\xff\xff\xff\xff\xef\xbf'
tRp1065
sg32
F1
sg33
F0
sa(dp1066
g30
g6
(g8
S'D\xe1z\x14\xaeG\xf1\xbf'
tRp1067
sg32
F232
sg33
F0.0022000000000000001
sa(dp1068
g30
g277
sg32
F811
sg33
F0.050700000000000002
sa(dp1069
g41
g6
(g8
S'T\x8f\xc2\xf5(\\\xef\xbf'
tRp1070
sg43
F59
sg44
F0.023599999999999999
sa(dp1071
g41
g281
sg43
F351
sg44
F0.057000000000000002
sa(dp1072
g5
g6
(g8
S'\xf5(\\\x8f\xc2\xf5\xfc\xbf'
tRp1073
sg10
F1
sg11
F0.00040000000000000002
sas(F0.14999999999999999
F-0.02
tp1074
(lp1075
(dp1076
g5
g335
sg10
F45
sg11
F0
sa(dp1077
g5
g981
sg10
F1
sg11
F0
sa(dp1078
g5
g494
sg10
F1
sg11
F0
sas(F-0.089999999999999997
F-0.02
tp1079
(lp1080
(dp1081
g5
g896
sg10
F20
sg11
F0.0019
sa(dp1082
g5
g6
(g8
S'\xb0Q\xb8\x1e\x85\xeb\xc1\xbf'
tRp1083
sg10
F1
sg11
F0.00029999999999999997
sas(F-0.14000000000000001
F-0.01
tp1084
(lp1085
(dp1086
g21
g6
(g8
S'\x88p=\n\xd7\xa3\xd0\xbf'
tRp1087
sg23
F416
sg24
F0
sa(dp1088
g30
g6
(g8
S'\x82\xebQ\xb8\x1e\x85\xf3\xbf'
tRp1089
sg32
F1
sg33
F0
sa(dp1090
g5
g461
sg10
F1
sg11
F0
sa(dp1091
g5
g6
(g8
S'\xe1z\x14\xaeG\xe1\xfe\xbf'
tRp1092
sg10
F1
sg11
F0
sa(dp1093
g5
g6
(g8
S'\xe8Q\xb8\x1e\x85\xeb\xf1\xbf'
tRp1094
sg10
F1
sg11
F0
sas(F0.23999999999999999
F-0.01
tp1095
(lp1096
(dp1097
g21
g6
(g8
S'\x14\x00\x00\x00\x00\x00\xe0?'
tRp1098
sg23
F1814
sg24
F0
sa(dp1099
g30
g310
sg32
F1
sg33
F0
sa(dp1100
g41
g6
(g8
S'\xf0\xd6\xa3p=\n\xd7\xbf'
tRp1101
sg43
F1
sg44
F0
sa(dp1102
g41
g948
sg43
F1
sg44
F0
sa(dp1103
g5
g6
(g8
S'\xb5\x1e\x85\xebQ\xb8\xf2\xbf'
tRp1104
sg10
F1
sg11
F0
sas(F-0.080000000000000002
F0.01
tp1105
(lp1106
(dp1107
g21
g26
sg23
F559
sg24
F0.035499999999999997
sa(dp1108
g30
g279
sg32
F1
sg33
F0
sa(dp1109
g41
g46
sg43
F4
sg44
F0.035700000000000003
sa(dp1110
g5
g283
sg10
F1
sg11
F0.00029999999999999997
sas(F0.51000000000000001
F-0.01
tp1111
(lp1112
(dp1113
g5
g6
(g8
S'\x1e\\\x8f\xc2\xf5(\xe4\xbf'
tRp1114
sg10
F236
sg11
F0
sa(dp1115
g5
g6
(g8
S'\xe0\x99\x99\x99\x99\x99\xc9?'
tRp1116
sg10
F1
sg11
F0
sa(dp1117
g5
g150
sg10
F1
sg11
F0
sas(F0.79000000000000004
F-0.02
tp1118
(lp1119
(dp1120
g5
g6
(g8
S'\xfaQ\xb8\x1e\x85\xeb\xf9?'
tRp1121
sg10
F1
sg11
F0
sa(dp1122
g5
g840
sg10
F1
sg11
F0
sas(F0.02
F0
tp1123
(lp1124
(dp1125
g21
g6
(g8
S'\xec(\\\x8f\xc2\xf5\xe8\xbf'
tRp1126
sg23
F135
sg24
F0.84489999999999998
sa(dp1127
g21
g6
(g8
S'J33333\xeb?'
tRp1128
sg23
F67
sg24
F0.84799999999999998
sa(dp1129
g21
g6
(g8
S'\x80\x15\xaeG\xe1z\xa4?'
tRp1130
sg23
F7837
sg24
F0.84279999999999999
sa(dp1131
g30
g6
(g8
S'\x90\x99\x99\x99\x99\x99\xe9\xbf'
tRp1132
sg32
F918
sg33
F0.86219999999999997
sa(dp1133
g30
g517
sg32
F458
sg33
F0.84289999999999998
sa(dp1134
g30
g521
sg32
F205
sg33
F0.85840000000000005
sa(dp1135
g30
g513
sg32
F55
sg33
F0.84719999999999995
sa(dp1136
g30
g527
sg32
F30
sg33
F0.84450000000000003
sa(dp1137
g30
g6
(g8
S'*33333\xeb\xbf'
tRp1138
sg32
F22
sg33
F0.86260000000000003
sa(dp1139
g30
g523
sg32
F10
sg33
F0.84379999999999999
sa(dp1140
g30
g6
(g8
S',\xaeG\xe1z\x14\xee?'
tRp1141
sg32
F99
sg33
F0.84550000000000003
sa(dp1142
g30
g6
(g8
S'\xc4\xcc\xcc\xcc\xcc\xcc\xec\xbf'
tRp1143
sg32
F569
sg33
F0.84160000000000001
sa(dp1144
g30
g231
sg32
F261
sg33
F0.97499999999999998
sa(dp1145
g5
g6
(g8
S'\x13\xaeG\xe1z\x14\xfa\xbf'
tRp1146
sg10
F1
sg11
F0.29470000000000002
sa(dp1147
g5
g730
sg10
F1
sg11
F0.046100000000000002
sas(F-0.62
F-0.01
tp1148
(lp1149
(dp1150
g5
g6
(g8
S'\x82\xebQ\xb8\x1e\x85\xf3\xbf'
tRp1151
sg10
F2
sg11
F0
sas(F0.70999999999999996
F-0.01
tp1152
(lp1153
(dp1154
g5
g653
sg10
F246
sg11
F0
sa(dp1155
g5
g6
(g8
S'\x18\xd7\xa3p=\n\xf7?'
tRp1156
sg10
F1
sg11
F0
sa(dp1157
g5
g909
sg10
F1
sg11
F0
sa(dp1158
g5
g138
sg10
F1
sg11
F0
sas(F0.14000000000000001
F0.01
tp1159
(lp1160
(dp1161
g30
g6
(g8
S'\xc8p=\n\xd7\xa3\xd0?'
tRp1162
sg32
F901
sg33
F0
sa(dp1163
g30
g6
(g8
S'\x17\xd7\xa3p=\n\xf3?'
tRp1164
sg32
F1
sg33
F0
sa(dp1165
g41
g6
(g8
S'\xcf\xf5(\\\x8f\xc2\xf1?'
tRp1166
sg43
F1
sg44
F0
sa(dp1167
g5
g6
(g8
S'}=\n\xd7\xa3p\xf1?'
tRp1168
sg10
F1
sg11
F0
sas(F0.83999999999999997
F0.01
tp1169
(lp1170
(dp1171
g5
g563
sg10
F1
sg11
F0
sas(F0.92000000000000004
F1.0600000000000001
tp1172
(lp1173
(dp1174
g5
g1094
sg10
F4
sg11
F-0.2661
sas(F0.88
F0
tp1175
(lp1176
(dp1177
g5
g364
sg10
F231
sg11
F-0.047500000000000001
sa(dp1178
g5
g6
(g8
S'8\\\x8f\xc2\xf5(\xfc?'
tRp1179
sg10
F41
sg11
F0
sas(F0.32000000000000001
F0.46000000000000002
tp1180
(lp1181
(dp1182
g41
g290
sg43
F3
sg44
F-0.1847
sas(F0.029999999999999999
F-0.01
tp1183
(lp1184
(dp1185
g21
g174
sg23
F626
sg24
F1
sa(dp1186
g30
g6
(g8
S'\xec(\\\x8f\xc2\xf5\xe8\xbf'
tRp1187
sg32
F77
sg33
F0.77090000000000003
sa(dp1188
g30
g667
sg32
F59
sg33
F0.7722
sa(dp1189
g30
g673
sg32
F11
sg33
F0.76619999999999999
sa(dp1190
g41
g6
(g8
S'H\xb8\x1e\x85\xebQ\xe8\xbf'
tRp1191
sg43
F43
sg44
F0.6573
sa(dp1192
g5
g6
(g8
S'o=\n\xd7\xa3p\xf9\xbf'
tRp1193
sg10
F65
sg11
F0.77249999999999996
sas(F0.5
F0.01
tp1194
(lp1195
(dp1196
g5
g504
sg10
F187
sg11
F0
sa(dp1197
g5
g502
sg10
F1
sg11
F0
sas(F-0.23000000000000001
F-0.01
tp1198
(lp1199
(dp1200
g30
g79
sg32
F247
sg33
F0
sa(dp1201
g5
g774
sg10
F1
sg11
F0
sa(dp1202
g5
g249
sg10
F1
sg11
F0
sa(dp1203
g5
g261
sg10
F1
sg11
F0
sas(F-0.63
F-0.01
tp1204
(lp1205
(dp1206
g5
g6
(g8
S'\xd4\xa3p=\n\xd7\xf3\xbf'
tRp1207
sg10
F1
sg11
F0
sas(F0.68999999999999995
F0
tp1208
(lp1209
(dp1210
g5
g6
(g8
S'\\\xe1z\x14\xaeG\xe1?'
tRp1211
sg10
F1776
sg11
F0
sa(dp1212
g5
g6
(g8
S't\xc2\xf5(\\\x8f\xd2\xbf'
tRp1213
sg10
F1
sg11
F0
sa(dp1214
g5
g17
sg10
F1
sg11
F0
sa(dp1215
g5
g6
(g8
S'"\xaeG\xe1z\x14\xf6?'
tRp1216
sg10
F1
sg11
F0
sas(F-0.55000000000000004
F0
tp1217
(lp1218
(dp1219
g5
g6
(g8
S'\n\xd7\xa3p=\n\xff\xbf'
tRp1220
sg10
F29
sg11
F0
sa(dp1221
g5
g6
(g8
S',\xe1z\x14\xaeG\xd1\xbf'
tRp1222
sg10
F1
sg11
F0
sa(dp1223
g5
g461
sg10
F1
sg11
F0
sas(F0.84999999999999998
F-0.01
tp1224
(lp1225
(dp1226
g5
g6
(g8
S'\x94\xebQ\xb8\x1e\x85\xfb?'
tRp1227
sg10
F257
sg11
F0
sa(dp1228
g5
g728
sg10
F1
sg11
F0
sa(dp1229
g5
g413
sg10
F1
sg11
F0
sas(F0.58999999999999997
F-0.01
tp1230
(lp1231
(dp1232
g5
g393
sg10
F323
sg11
F0
sa(dp1233
g5
g475
sg10
F1
sg11
F0
sa(dp1234
g5
g473
sg10
F1
sg11
F0
sas(F-0.5
F0
tp1235
(lp1236
(dp1237
g133
g6
(g8
S'p=\n\xd7\xa3p\xfd\xbf'
tRp1238
sg135
F4
sg136
F-0.11360000000000001
sa(dp1239
g5
g6
(g8
S'\xf8\xff\xff\xff\xff\xff\xef\xbf'
tRp1240
sg10
F6
sg11
F-0.0053
sa(dp1241
g5
g6
(g8
S'\x88\xf5(\\\x8f\xc2\xc5\xbf'
tRp1242
sg10
F121
sg11
F-0.0022000000000000001
sas(F0.20999999999999999
F0.01
tp1243
(lp1244
(dp1245
g30
g154
sg32
F1171
sg33
F0
sa(dp1246
g30
g221
sg32
F1
sg33
F0
sa(dp1247
g30
g325
sg32
F1
sg33
F0
sa(dp1248
g41
g223
sg43
F1
sg44
F0
sa(dp1249
g5
g6
(g8
S'\xbbG\xe1z\x14\xae\xf3?'
tRp1250
sg10
F1
sg11
F0
sas(F-0.54000000000000004
F0
tp1251
(lp1252
(dp1253
g5
g6
(g8
S'\xb8\x1e\x85\xebQ\xb8\xfe\xbf'
tRp1254
sg10
F39
sg11
F0
sa(dp1255
g5
g911
sg10
F1
sg11
F0
sa(dp1256
g5
g117
sg10
F1
sg11
F0
sas(F0.080000000000000002
F-0.01
tp1257
(lp1258
(dp1259
g21
g6
(g8
S'P\xd7\xa3p=\n\xc7?'
tRp1260
sg23
F562
sg24
F0.0315
sa(dp1261
g30
g821
sg32
F1
sg33
F0
sa(dp1262
g30
g1187
sg32
F3
sg33
F0.00020000000000000001
sa(dp1263
g41
g827
sg43
F253
sg44
F0.058400000000000001
sa(dp1264
g41
g6
(g8
S'\xb8\xf5(\\\x8f\xc2\xe5\xbf'
tRp1265
sg43
F1
sg44
F0.00059999999999999995
sa(dp1266
g5
g6
(g8
S'\xd5\xa3p=\n\xd7\xf7\xbf'
tRp1267
sg10
F1
sg11
F0.030700000000000002
sas(F0.19
F-0.01
tp1268
(lp1269
(dp1270
g21
g6
(g8
S'\xc0\x99\x99\x99\x99\x99\xd9?'
tRp1271
sg23
F1472
sg24
F0
sa(dp1272
g30
g157
sg32
F1
sg33
F0
sa(dp1273
g30
g693
sg32
F1
sg33
F0
sa(dp1274
g41
g6
(g8
S'\x10\\\x8f\xc2\xf5(\xdc\xbf'
tRp1275
sg43
F1
sg44
F0
sa(dp1276
g41
g6
(g8
S'X=\n\xd7\xa3p\xdd\xbf'
tRp1277
sg43
F1
sg44
F0
sa(dp1278
g5
g6
(g8
S'O\xb8\x1e\x85\xebQ\xf4\xbf'
tRp1279
sg10
F1
sg11
F0
sas(F-0.19
F-0.02
tp1280
(lp1281
(dp1282
g5
g6
(g8
S'\xa8\xf5(\\\x8f\xc2\xd5\xbf'
tRp1283
sg10
F8
sg11
F0
sa(dp1284
g5
g6
(g8
S'\xdez\x14\xaeG\xe1\xf2\xbf'
tRp1285
sg10
F1
sg11
F0
sa(dp1286
g5
g261
sg10
F1
sg11
F0
sas(F-0.17000000000000001
F0.01
tp1287
(lp1288
(dp1289
g30
g6
(g8
S'\xf0\xd6\xa3p=\n\xd7\xbf'
tRp1290
sg32
F335
sg33
F0
sa(dp1291
g5
g162
sg10
F1
sg11
F0
sa(dp1292
g5
g6
(g8
S'\x84\x8f\xc2\xf5(\\\xdf?'
tRp1293
sg10
F1
sg11
F0
sas(F0.32000000000000001
F0.11
tp1294
(lp1295
(dp1296
g30
g6
(g8
S'\x08{\x14\xaeG\xe1\xda?'
tRp1297
sg32
F9
sg33
F-0.91749999999999998
sa(dp1298
g30
g221
sg32
F16
sg33
F-0.94299999999999995
sa(dp1299
g30
g97
sg32
F16
sg33
F-0.91810000000000003
sas(F0.92000000000000004
F1
tp1300
(lp1301
(dp1302
g5
g6
(g8
S'@\x14\xaeG\xe1z\xc4\xbf'
tRp1303
sg10
F1
sg11
F-0.14630000000000001
sa(dp1304
g5
g17
sg10
F1
sg11
F-0.25719999999999998
sa(dp1305
g5
g283
sg10
F1
sg11
F-0.053699999999999998
sas(F-0.28999999999999998
F0
tp1306
(lp1307
(dp1308
g133
g6
(g8
S'\xb6\x1e\x85\xebQ\xb8\xf6\xbf'
tRp1309
sg135
F580
sg136
F0
sa(dp1310
g5
g939
sg10
F1
sg11
F0
sa(dp1311
g5
g6
(g8
S'$\x00\x00\x00\x00\x00\xd0?'
tRp1312
sg10
F1
sg11
F0
sas(F-0.11
F0.02
tp1313
(lp1314
(dp1315
g5
g292
sg10
F2
sg11
F0.00040000000000000002
sas(F-0.10000000000000001
F0.02
tp1316
(lp1317
(dp1318
g5
g6
(g8
S'\x80\x1e\x85\xebQ\xb8\xce\xbf'
tRp1319
sg10
F4
sg11
F0.00089999999999999998
sa(dp1320
g5
g875
sg10
F1
sg11
F0.0001
sas(F-0.14999999999999999
F-0.01
tp1321
(lp1322
(dp1323
g21
g6
(g8
S'\xd0Q\xb8\x1e\x85\xeb\xd1\xbf'
tRp1324
sg23
F381
sg24
F0
sa(dp1325
g5
g1094
sg10
F1
sg11
F0
sa(dp1326
g5
g6
(g8
S'333333\xff\xbf'
tRp1327
sg10
F1
sg11
F0
sas(F0.81000000000000005
F-0.01
tp1328
(lp1329
(dp1330
g5
g744
sg10
F245
sg11
F0
sa(dp1331
g5
g790
sg10
F1
sg11
F0
sa(dp1332
g5
g840
sg10
F1
sg11
F0
sas(F0.45000000000000001
F-0.01
tp1333
(lp1334
(dp1335
g5
g901
sg10
F232
sg11
F0
sa(dp1336
g5
g6
(g8
S'\xf6\xff\xff\xff\xff\xff\xe7\xbf'
tRp1337
sg10
F1
sg11
F0
sa(dp1338
g5
g1193
sg10
F1
sg11
F0
sa(dp1339
g5
g364
sg10
F1
sg11
F0
sas(F0.85999999999999999
F0
tp1340
(lp1341
(dp1342
g5
g728
sg10
F152
sg11
F0
sa(dp1343
g5
g1227
sg10
F1
sg11
F0
sas(F-0.65000000000000002
F-0.01
tp1344
(lp1345
(dp1346
g5
g774
sg10
F1
sg11
F0
sas(F-0.20999999999999999
F-0.02
tp1347
(lp1348
(dp1349
g5
g1151
sg10
F7
sg11
F0
sa(dp1350
g5
g6
(g8
S'8\xb8\x1e\x85\xebQ\xd8\xbf'
tRp1351
sg10
F1
sg11
F0
sas(F-0.23999999999999999
F0.02
tp1352
(lp1353
(dp1354
g5
g200
sg10
F2
sg11
F0
sas(F0.20000000000000001
F-0.02
tp1355
(lp1356
(dp1357
g5
g444
sg10
F47
sg11
F0
sa(dp1358
g5
g6
(g8
S'P\\\x8f\xc2\xf5(\xdc?'
tRp1359
sg10
F1
sg11
F0
sa(dp1360
g5
g306
sg10
F1
sg11
F0
sas(F-0.02
F0.02
tp1361
(lp1362
(dp1363
g5
g6
(g8
S'\x00\x14\xaeG\xe1z\xb4\xbf'
tRp1364
sg10
F7
sg11
F0.97370000000000001
sa(dp1365
g5
g6
(g8
S'\x16\x00\x00\x00\x00\x00\xe8?'
tRp1366
sg10
F1
sg11
F0.025000000000000001
sas(F-0.40999999999999998
F0
tp1367
(lp1368
(dp1369
g133
g6
(g8
S'\x8e\xc2\xf5(\\\x8f\xfa\xbf'
tRp1370
sg135
F1
sg136
F-0.0082000000000000007
sa(dp1371
g5
g6
(g8
S'4\n\xd7\xa3p=\xea\xbf'
tRp1372
sg10
F536
sg11
F-0.00089999999999999998
sa(dp1373
g5
g170
sg10
F22
sg11
F-0.001
sas(F0.28999999999999998
F0
tp1374
(lp1375
(dp1376
g21
g753
sg23
F3756
sg24
F-0.002
sa(dp1377
g21
g287
sg23
F3544
sg24
F-0.00089999999999999998
sa(dp1378
g30
g6
(g8
S'\x88p=\n\xd7\xa3\xd0\xbf'
tRp1379
sg32
F467
sg33
F-0.00089999999999999998
sa(dp1380
g30
g6
(g8
S'\xd0Q\xb8\x1e\x85\xeb\xd1\xbf'
tRp1381
sg32
F630
sg33
F-0.0023
sa(dp1382
g30
g6
(g8
S'\x04\x85\xebQ\xb8\x1e\xd5\xbf'
tRp1383
sg32
F372
sg33
F-0.0023
sa(dp1384
g30
g1290
sg32
F156
sg33
F-0.0023
sa(dp1385
g30
g6
(g8
S'7\\\x8f\xc2\xf5(\xf8?'
tRp1386
sg32
F601
sg33
F-0.0023
sa(dp1387
g41
g6
(g8
S'\x9d\xc2\xf5(\\\x8f\xf6?'
tRp1388
sg43
F163
sg44
F-0.0014
sa(dp1389
g5
g294
sg10
F235
sg11
F-0.00089999999999999998
sas(F0.32000000000000001
F0.17000000000000001
tp1390
(lp1391
(dp1392
g30
g6
(g8
S'X33333\xd3?'
tRp1393
sg32
F7
sg33
F-0.66539999999999999
sa(dp1394
g30
g97
sg32
F5
sg33
F-0.73029999999999995
sa(dp1395
g30
g6
(g8
S'\xbbG\xe1z\x14\xae\xf3?'
tRp1396
sg32
F13
sg33
F-0.70040000000000002
sa(dp1397
g41
g6
(g8
S'!\xaeG\xe1z\x14\xf2?'
tRp1398
sg43
F12
sg44
F-0.66510000000000002
sas(F0.80000000000000004
F-0.02
tp1399
(lp1400
(dp1401
g5
g744
sg10
F2
sg11
F0
sas(F-0.64000000000000001
F0
tp1402
(lp1403
(dp1404
g5
g261
sg10
F4
sg11
F0
sa(dp1405
g5
g389
sg10
F1
sg11
F0
sas(F0.27000000000000002
F0
tp1406
(lp1407
(dp1408
g21
g1324
sg23
F10415
sg24
F0
sa(dp1409
g21
g6
(g8
S'\\\xe1z\x14\xaeG\xe1?'
tRp1410
sg23
F1
sg24
F0
sa(dp1411
g30
g538
sg32
F1
sg33
F-0.00089999999999999998
sa(dp1412
g30
g425
sg32
F1
sg33
F0
sa(dp1413
g30
g6
(g8
S'\x94G\xe1z\x14\xae\xd7\xbf'
tRp1414
sg32
F1
sg33
F0
sa(dp1415
g30
g65
sg32
F1
sg33
F0
sa(dp1416
g30
g6
(g8
S'\x93\xebQ\xb8\x1e\x85\xf7?'
tRp1417
sg32
F1
sg33
F0
sa(dp1418
g41
g6
(g8
S'\xf9Q\xb8\x1e\x85\xeb\xf5?'
tRp1419
sg43
F1
sg44
F0
sa(dp1420
g5
g6
(g8
S'\x11\xaeG\xe1z\x14\xf2\xbf'
tRp1421
sg10
F1
sg11
F0
sas(F0.32000000000000001
F0.050000000000000003
tp1422
(lp1423
(dp1424
g30
g6
(g8
S'\\\xe1z\x14\xaeG\xe1?'
tRp1425
sg32
F17
sg33
F-0.94999999999999996
sa(dp1426
g30
g97
sg32
F13
sg33
F-0.91200000000000003
sas(F0.32000000000000001
F0.17999999999999999
tp1427
(lp1428
(dp1429
g30
g6
(g8
S'\x10R\xb8\x1e\x85\xeb\xd1?'
tRp1430
sg32
F7
sg33
F-0.63190000000000002
sa(dp1431
g30
g97
sg32
F5
sg33
F-0.59240000000000004
sa(dp1432
g30
g6
(g8
S'i\x8f\xc2\xf5(\\\xf3?'
tRp1433
sg32
F9
sg33
F-0.6008
sas(F0.68000000000000005
F-0.02
tp1434
(lp1435
(dp1436
g5
g6
(g8
S'\x00R\xb8\x1e\x85\xeb\xe1?'
tRp1437
sg10
F25
sg11
F0
sa(dp1438
g5
g6
(g8
S'tfffff\xf6?'
tRp1439
sg10
F1
sg11
F0
sa(dp1440
g5
g189
sg10
F1
sg11
F0
sas(F0.17999999999999999
F-0.02
tp1441
(lp1442
(dp1443
g5
g6
(g8
S'\x10\\\x8f\xc2\xf5(\xdc\xbf'
tRp1444
sg10
F38
sg11
F0
sa(dp1445
g5
g6
(g8
S'\xc0\x99\x99\x99\x99\x99\xd9?'
tRp1446
sg10
F1
sg11
F0
sa(dp1447
g5
g1279
sg10
F1
sg11
F0
sas(F0.40000000000000002
F0.02
tp1448
(lp1449
(dp1450
g5
g6
(g8
S'h\xb8\x1e\x85\xebQ\xe8?'
tRp1451
sg10
F1
sg11
F0
sas(F0.5
F0.02
tp1452
(lp1453
(dp1454
g5
g867
sg10
F2
sg11
F0
sas(F0.80000000000000004
F0
tp1455
(lp1456
(dp1457
g5
g1451
sg10
F82
sg11
F0
sa(dp1458
g5
g6
(g8
S'\xa8\x99\x99\x99\x99\x99\xf9?'
tRp1459
sg10
F1
sg11
F0
sas(F0.92000000000000004
F0.17999999999999999
tp1460
(lp1461
(dp1462
g5
g6
(g8
S'\xbcG\xe1z\x14\xae\xf7?'
tRp1463
sg10
F2
sg11
F-0.13700000000000001
sas(F0.92000000000000004
F0.33000000000000002
tp1464
(lp1465
(dp1466
g5
g984
sg10
F1
sg11
F-0.098799999999999999
sa(dp1467
g5
g17
sg10
F2
sg11
F-0.1759
sas(F-0.44
F0.01
tp1468
(lp1469
(dp1470
g133
g6
(g8
S'pQ\xb8\x1e\x85\xeb\xb1\xbf'
tRp1471
sg135
F2
sg136
F-0.046300000000000001
sa(dp1472
g5
g931
sg10
F51
sg11
F-0.00089999999999999998
sas(F0.46999999999999997
F0.01
tp1473
(lp1474
(dp1475
g5
g364
sg10
F193
sg11
F0
sa(dp1476
g5
g6
(g8
S'a\xb8\x1e\x85\xebQ\xfc?'
tRp1477
sg10
F1
sg11
F0
sas(F0.46000000000000002
F-0.02
tp1478
(lp1479
(dp1480
g5
g865
sg10
F55
sg11
F0
sa(dp1481
g5
g863
sg10
F1
sg11
F0
sas(F0.34999999999999998
F0.01
tp1482
(lp1483
(dp1484
g5
g815
sg10
F175
sg11
F0
sa(dp1485
g5
g6
(g8
S'\x89\x14\xaeG\xe1z\xf8?'
tRp1486
sg10
F1
sg11
F0
sa(dp1487
g5
g6
(g8
S'7\\\x8f\xc2\xf5(\xf8?'
tRp1488
sg10
F1
sg11
F0
sas(F-0.059999999999999998
F-0.01
tp1489
(lp1490
(dp1491
g21
g6
(g8
S' \x99\x99\x99\x99\x99\xb9\xbf'
tRp1492
sg23
F598
sg24
F0.025999999999999999
sa(dp1493
g30
g6
(g8
S'\xf2(\\\x8f\xc2\xf5\xf0\xbf'
tRp1494
sg32
F1
sg33
F0.0050000000000000001
sa(dp1495
g30
g35
sg32
F1
sg33
F0.0066
sa(dp1496
g41
g722
sg43
F1
sg44
F0.027799999999999998
sa(dp1497
g5
g933
sg10
F59
sg11
F0.046300000000000001
sa(dp1498
g5
g6
(g8
S'\xb0\x1e\x85\xebQ\xb8\xee\xbf'
tRp1499
sg10
F1
sg11
F0.0106
sas(F0.13
F0
tp1500
(lp1501
(dp1502
g21
g6
(g8
S'\xe0Q\xb8\x1e\x85\xeb\xe1\xbf'
tRp1503
sg23
F7008
sg24
F0.00069999999999999999
sa(dp1504
g21
g6
(g8
S'\xc8p=\n\xd7\xa3\xd0?'
tRp1505
sg23
F1
sg24
F0
sa(dp1506
g30
g695
sg32
F1
sg33
F0.00020000000000000001
sa(dp1507
g30
g488
sg32
F1
sg33
F0
sa(dp1508
g30
g6
(g8
S'\xc2\xcc\xcc\xcc\xcc\xcc\xe4\xbf'
tRp1509
sg32
F1
sg33
F0
sa(dp1510
g30
g6
(g8
S'\xb8\xf5(\\\x8f\xc2\xe5\xbf'
tRp1511
sg32
F1
sg33
F0
sa(dp1512
g30
g1164
sg32
F1
sg33
F0
sa(dp1513
g41
g6
(g8
S'}=\n\xd7\xa3p\xf1?'
tRp1514
sg43
F1
sg44
F0
sa(dp1515
g5
g941
sg10
F1
sg11
F0.0001
sas(F0.40999999999999998
F0
tp1516
(lp1517
(dp1518
g5
g6
(g8
S'*33333\xeb\xbf'
tRp1519
sg10
F725
sg11
F0
sa(dp1520
g5
g565
sg10
F1
sg11
F0
sa(dp1521
g5
g925
sg10
F1
sg11
F0
sa(dp1522
g5
g687
sg10
F1
sg11
F0
sas(F-0.17000000000000001
F-0.01
tp1523
(lp1524
(dp1525
g30
g425
sg32
F321
sg33
F0
sa(dp1526
g5
g6
(g8
S'\x8c\xc2\xf5(\\\x8f\xf2\xbf'
tRp1527
sg10
F1
sg11
F0
sa(dp1528
g5
g6
(g8
S'\xd7\xa3p=\n\xd7\xff\xbf'
tRp1529
sg10
F1
sg11
F0
sa(dp1530
g5
g1285
sg10
F1
sg11
F0
sas(F0.28999999999999998
F-0.02
tp1531
(lp1532
(dp1533
g5
g558
sg10
F48
sg11
F-0
sa(dp1534
g5
g6
(g8
S'\xf0[\x8f\xc2\xf5(\xcc\xbf'
tRp1535
sg10
F1
sg11
F-0.0001
sa(dp1536
g5
g294
sg10
F1
sg11
F0
sas(F0.14999999999999999
F-0.01
tp1537
(lp1538
(dp1539
g21
g6
(g8
S'\xa0\x14\xaeG\xe1z\xd4?'
tRp1540
sg23
F1247
sg24
F0
sa(dp1541
g30
g597
sg32
F1
sg33
F0
sa(dp1542
g30
g6
(g8
S'\r\x00\x00\x00\x00\x00\xf4?'
tRp1543
sg32
F1
sg33
F0
sa(dp1544
g30
g6
(g8
S'p\x14\xaeG\xe1z\xe4\xbf'
tRp1545
sg32
F1
sg33
F0
sa(dp1546
g41
g6
(g8
S'\x98p=\n\xd7\xa3\xe0\xbf'
tRp1547
sg43
F1
sg44
F0
sa(dp1548
g41
g6
(g8
S'<\xe1z\x14\xaeG\xe1\xbf'
tRp1549
sg43
F1
sg44
F0
sa(dp1550
g5
g204
sg10
F1
sg11
F0
sas(F0.52000000000000002
F0.01
tp1551
(lp1552
(dp1553
g5
g105
sg10
F179
sg11
F0
sa(dp1554
g5
g6
(g8
S'\xfbQ\xb8\x1e\x85\xeb\xfd?'
tRp1555
sg10
F1
sg11
F0
sa(dp1556
g5
g103
sg10
F1
sg11
F0
sas(F-0.13
F-0.02
tp1557
(lp1558
(dp1559
g133
g6
(g8
S'\xf0[\x8f\xc2\xf5(\xcc\xbf'
tRp1560
sg135
F7
sg136
F0
sa(dp1561
g5
g6
(g8
S'\xf2(\\\x8f\xc2\xf5\xf0\xbf'
tRp1562
sg10
F1
sg11
F0
sas(F-0.10000000000000001
F0.01
tp1563
(lp1564
(dp1565
g21
g111
sg23
F505
sg24
F0.0051999999999999998
sa(dp1566
g30
g6
(g8
S'r\x8f\xc2\xf5(\\\xe7?'
tRp1567
sg32
F1
sg33
F0
sa(dp1568
g30
g1063
sg32
F1
sg33
F0
sa(dp1569
g41
g6
(g8
S'>\\\x8f\xc2\xf5(\xe4?'
tRp1570
sg43
F1
sg44
F0.0001
sa(dp1571
g5
g877
sg10
F1
sg11
F0.0047000000000000002
sas(F-0.42999999999999999
F0
tp1572
(lp1573
(dp1574
g133
g6
(g8
S'233333\xfb\xbf'
tRp1575
sg135
F2
sg136
F-0.0154
sa(dp1576
g5
g343
sg10
F209
sg11
F-0.00089999999999999998
sa(dp1577
g5
g6
(g8
S'\xc0\x1c\x85\xebQ\xb8\x9e\xbf'
tRp1578
sg10
F174
sg11
F-0.00089999999999999998
sas(F0.32000000000000001
F0.16
tp1579
(lp1580
(dp1581
g30
g1543
sg32
F12
sg33
F-0.5857
sa(dp1582
g30
g97
sg32
F5
sg33
F-0.63770000000000004
sa(dp1583
g41
g6
(g8
S'\xa0\x14\xaeG\xe1z\xd4?'
tRp1584
sg43
F8
sg44
F-0.59730000000000005
sas(F0.92000000000000004
F0.65000000000000002
tp1585
(lp1586
(dp1587
g5
g1211
sg10
F4
sg11
F-0.38490000000000002
sas(F0.080000000000000002
F-0.02
tp1588
(lp1589
(dp1590
g5
g634
sg10
F1
sg11
F0.029100000000000001
sa(dp1591
g5
g1116
sg10
F38
sg11
F0.050299999999999997
sas(F-0.33000000000000002
F0.01
tp1592
(lp1593
(dp1594
g133
g6
(g8
S'\xb8\xf5(\\\x8f\xc2\xe5\xbf'
tRp1595
sg135
F2
sg136
F-0.00089999999999999998
sa(dp1596
g5
g6
(g8
S'\x08\xf6(\\\x8f\xc2\xc5?'
tRp1597
sg10
F10
sg11
F-0.00020000000000000001
sa(dp1598
g5
g6
(g8
S'x33333\xc3?'
tRp1599
sg10
F172
sg11
F-0
sa(dp1600
g5
g6
(g8
S'\xc6G\xe1z\x14\xae\xef?'
tRp1601
sg10
F1
sg11
F0
sas(F0.46999999999999997
F0
tp1602
(lp1603
(dp1604
g5
g6
(g8
S'R\x8f\xc2\xf5(\\\xe7\xbf'
tRp1605
sg10
F959
sg11
F0
sa(dp1606
g5
g6
(g8
S' \x9a\x99\x99\x99\x99\xb9?'
tRp1607
sg10
F1
sg11
F0
sa(dp1608
g5
g1477
sg10
F1
sg11
F0
sa(dp1609
g5
g797
sg10
F1
sg11
F0
sas(F-0.26000000000000001
F0.01
tp1610
(lp1611
(dp1612
g30
g157
sg32
F248
sg33
F0
sa(dp1613
g5
g991
sg10
F1
sg11
F0
sa(dp1614
g5
g271
sg10
F1
sg11
F0
sas(F-0.02
F0.01
tp1615
(lp1616
(dp1617
g21
g6
(g8
S'\xc0\x1d\x85\xebQ\xb8\xae\xbf'
tRp1618
sg23
F489
sg24
F0.79300000000000004
sa(dp1619
g30
g521
sg32
F86
sg33
F0.82440000000000002
sa(dp1620
g30
g517
sg32
F1
sg33
F0.025000000000000001
sa(dp1621
g41
g6
(g8
S'\xbap=\n\xd7\xa3\xe8?'
tRp1622
sg43
F147
sg44
F0.82269999999999999
sa(dp1623
g5
g649
sg10
F31
sg11
F1
sas(F0.45000000000000001
F0
tp1624
(lp1625
(dp1626
g5
g6
(g8
S'\x9ap=\n\xd7\xa3\xe8\xbf'
tRp1627
sg10
F925
sg11
F0
sa(dp1628
g5
g6
(g8
S'\xc0\x1f\x85\xebQ\xb8\xae?'
tRp1629
sg10
F1
sg11
F0
sa(dp1630
g5
g6
(g8
S'\xbdG\xe1z\x14\xae\xfb?'
tRp1631
sg10
F1
sg11
F0
sa(dp1632
g5
g6
(g8
S'\xe4\xcc\xcc\xcc\xcc\xcc\xec?'
tRp1633
sg10
F1
sg11
F0
sas(F0.53000000000000003
F-0.02
tp1634
(lp1635
(dp1636
g5
g937
sg10
F42
sg11
F0
sa(dp1637
g5
g6
(g8
S'\xa6\x99\x99\x99\x99\x99\xf1?'
tRp1638
sg10
F1
sg11
F0
sa(dp1639
g5
g6
(g8
S'z\xebQ\xb8\x1e\x85\xe3\xbf'
tRp1640
sg10
F1
sg11
F0
sas(F0.92000000000000004
F0.23000000000000001
tp1641
(lp1642
(dp1643
g5
g1216
sg10
F4
sg11
F-0.2298
sa(dp1644
g5
g17
sg10
F4
sg11
F-0.29909999999999998
sas(F0.80000000000000004
F-0.01
tp1645
(lp1646
(dp1647
g5
g840
sg10
F246
sg11
F0
sa(dp1648
g5
g1121
sg10
F1
sg11
F0
sa(dp1649
g5
g6
(g8
S'\xa0\x98\x99\x99\x99\x99\xa9\xbf'
tRp1650
sg10
F1
sg11
F0
sa(dp1651
g5
g1451
sg10
F1
sg11
F0
sas(F0.92000000000000004
F0.54000000000000004
tp1652
(lp1653
(dp1654
g5
g1451
sg10
F4
sg11
F-0.19259999999999999
sa(dp1655
g5
g17
sg10
F3
sg11
F-0.26029999999999998
sas(F-0.029999999999999999
F-0.01
tp1656
(lp1657
(dp1658
g21
g6
(g8
S'\x80\x13\xaeG\xe1z\xa4\xbf'
tRp1659
sg23
F430
sg24
F0.74739999999999995
sa(dp1660
g30
g6
(g8
S'T\x8f\xc2\xf5(\\\xef\xbf'
tRp1661
sg32
F124
sg33
F0.72499999999999998
sa(dp1662
g30
g1065
sg32
F72
sg33
F0.97499999999999998
sa(dp1663
g41
g6
(g8
S'\xc4\xcc\xcc\xcc\xcc\xcc\xec\xbf'
tRp1664
sg43
F17
sg44
F0.75070000000000003
sa(dp1665
g41
g6
(g8
S' \\\x8f\xc2\xf5(\xec\xbf'
tRp1666
sg43
F71
sg44
F0.74990000000000001
sa(dp1667
g5
g6
(g8
S'[\x8f\xc2\xf5(\\\xfb\xbf'
tRp1668
sg10
F35
sg11
F0.72799999999999998
sas(F0.78000000000000003
F0.01
tp1669
(lp1670
(dp1671
g5
g439
sg10
F3
sg11
F0
sas(F-0.54000000000000004
F-0.01
tp1672
(lp1673
(dp1674
g5
g6
(g8
S'ffffff\xfe\xbf'
tRp1675
sg10
F8
sg11
F0
sa(dp1676
g5
g1562
sg10
F1
sg11
F0
sas(F0.92000000000000004
F0.5
tp1677
(lp1678
(dp1679
g5
g168
sg10
F6
sg11
F-0.4224
sa(dp1680
g5
g17
sg10
F3
sg11
F-0.2215
sas(F0.32000000000000001
F0.28999999999999998
tp1681
(lp1682
(dp1683
g30
g6
(g8
S'\xc0\x1f\x85\xebQ\xb8\xae?'
tRp1684
sg32
F27
sg33
F-1.7428999999999999
sa(dp1685
g30
g97
sg32
F15
sg33
F-1.7406999999999999
sas(F0.32000000000000001
F-0.02
tp1686
(lp1687
(dp1688
g5
g6
(g8
S'\xa6G\xe1z\x14\xae\xef\xbf'
tRp1689
sg10
F43
sg11
F-0.00059999999999999995
sa(dp1690
g5
g1303
sg10
F1
sg11
F-0.0061999999999999998
sa(dp1691
g5
g815
sg10
F4
sg11
F-0.00059999999999999995
sas(F0.12
F-0.02
tp1692
(lp1693
(dp1694
g5
g6
(g8
S'\xe0Q\xb8\x1e\x85\xeb\xe1\xbf'
tRp1695
sg10
F10
sg11
F0.00020000000000000001
sa(dp1696
g5
g6
(g8
S'\x10R\xb8\x1e\x85\xeb\xd1?'
tRp1697
sg10
F30
sg11
F0.0018
sa(dp1698
g5
g206
sg10
F1
sg11
F0
sa(dp1699
g5
g607
sg10
F1
sg11
F0.0001
sas(F0.92000000000000004
F0.35999999999999999
tp1700
(lp1701
(dp1702
g5
g6
(g8
S'\xf8Q\xb8\x1e\x85\xeb\xf1?'
tRp1703
sg10
F7
sg11
F-0.49320000000000003
sas(F0.51000000000000001
F-0.029999999999999999
tp1704
(lp1705
(dp1706
g5
g1046
sg10
F1
sg11
F0
sas(F0.23000000000000001
F0.01
tp1707
(lp1708
(dp1709
g30
g193
sg32
F1279
sg33
F0
sa(dp1710
g30
g71
sg32
F1
sg33
F0
sa(dp1711
g30
g6
(g8
S'\xf9Q\xb8\x1e\x85\xeb\xf5?'
tRp1712
sg32
F1
sg33
F0
sa(dp1713
g41
g73
sg43
F1
sg44
F0
sa(dp1714
g41
g6
(g8
S'_\xb8\x1e\x85\xebQ\xf4?'
tRp1715
sg43
F1
sg44
F0
sas(F0.32000000000000001
F0.20999999999999999
tp1716
(lp1717
(dp1718
g30
g6
(g8
S'\x00\xd7\xa3p=\n\xe7\xbf'
tRp1719
sg32
F9
sg33
F-0.55820000000000003
sa(dp1720
g30
g97
sg32
F5
sg33
F-0.58560000000000001
sa(dp1721
g30
g6
(g8
S'p\\\x8f\xc2\xf5(\xcc?'
tRp1722
sg32
F5
sg33
F-0.53749999999999998
sas(F0.82999999999999996
F-0.02
tp1723
(lp1724
(dp1725
g5
g6
(g8
S'B33333\xfb?'
tRp1726
sg10
F3
sg11
F0
sas(F0.32000000000000001
F0.26000000000000001
tp1727
(lp1728
(dp1729
g30
g6
(g8
S'@\x1f\x85\xebQ\xb8\xbe?'
tRp1730
sg32
F5
sg33
F-0.50880000000000003
sa(dp1731
g30
g97
sg32
F2
sg33
F-0.58609999999999995
sa(dp1732
g41
g6
(g8
S'\x00\xd7\xa3p=\n\xe7\xbf'
tRp1733
sg43
F6
sg44
F-0.39240000000000003
sas(F0.25
F0
tp1734
(lp1735
(dp1736
g21
g6
(g8
S'`\x14\xaeG\xe1z\xd4\xbf'
tRp1737
sg23
F11271
sg24
F0
sa(dp1738
g21
g1098
sg23
F1
sg24
F0
sa(dp1739
g30
g6
(g8
S'\xa8\xf5(\\\x8f\xc2\xd5\xbf'
tRp1740
sg32
F1
sg33
F0
sa(dp1741
g30
g1290
sg32
F1
sg33
F0
sa(dp1742
g30
g6
(g8
S'$\n\xd7\xa3p=\xda\xbf'
tRp1743
sg32
F1
sg33
F0
sa(dp1744
g30
g79
sg32
F1
sg33
F0
sa(dp1745
g30
g6
(g8
S'\xefz\x14\xaeG\xe1\xf6?'
tRp1746
sg32
F1
sg33
F0
sa(dp1747
g41
g6
(g8
S'U\xe1z\x14\xaeG\xf5?'
tRp1748
sg43
F1
sg44
F0
sa(dp1749
g5
g1104
sg10
F1
sg11
F0
sas(F-0.48999999999999999
F0.01
tp1750
(lp1751
(dp1752
g133
g6
(g8
S'\xf8\xff\xff\xff\xff\xff\xef\xbf'
tRp1753
sg135
F24
sg136
F-0.0161
sas(F0.92000000000000004
F0.93000000000000005
tp1754
(lp1755
(dp1756
g5
g925
sg10
F5
sg11
F-0.87680000000000002
sa(dp1757
g5
g17
sg10
F1
sg11
F-1.0388999999999999
sa(dp1758
g5
g6
(g8
S'\x02R\xb8\x1e\x85\xeb\xe9?'
tRp1759
sg10
F10
sg11
F-0.61170000000000002
sas(F0.5
F-0.02
tp1760
(lp1761
(dp1762
g5
g1114
sg10
F47
sg11
F0
sa(dp1763
g5
g1116
sg10
F1
sg11
F0
sa(dp1764
g5
g150
sg10
F1
sg11
F0
sas(F0.76000000000000001
F0
tp1765
(lp1766
(dp1767
g5
g815
sg10
F193
sg11
F0
sa(dp1768
g5
g546
sg10
F1
sg11
F0
sa(dp1769
g5
g813
sg10
F1
sg11
F0
sa(dp1770
g5
g17
sg10
F1
sg11
F0
sas(F0.059999999999999998
F0.01
tp1771
(lp1772
(dp1773
g21
g6
(g8
S' \x9a\x99\x99\x99\x99\xb9?'
tRp1774
sg23
F604
sg24
F0.022599999999999999
sa(dp1775
g30
g6
(g8
S'\xd9\xcc\xcc\xcc\xcc\xcc\xf0?'
tRp1776
sg32
F1
sg33
F0.0051999999999999998
sa(dp1777
g30
g176
sg32
F1
sg33
F0.0064999999999999997
sa(dp1778
g41
g6
(g8
S'~fffff\xee?'
tRp1779
sg43
F1
sg44
F0.0054999999999999997
sa(dp1780
g41
g180
sg43
F104
sg44
F0.032599999999999997
sas(F0.92000000000000004
F0.29999999999999999
tp1781
(lp1782
(dp1783
g5
g6
(g8
S'\xe4\xa3p=\n\xd7\xf3?'
tRp1784
sg10
F1
sg11
F-0.098799999999999999
sa(dp1785
g5
g17
sg10
F2
sg11
F-0.17849999999999999
sas(F0.33000000000000002
F0
tp1786
(lp1787
(dp1788
g5
g6
(g8
S'\xd0\xd6\xa3p=\n\xc7\xbf'
tRp1789
sg10
F211
sg11
F-0.00040000000000000002
sa(dp1790
g5
g6
(g8
S'%\\\x8f\xc2\xf5(\xf0\xbf'
tRp1791
sg10
F60
sg11
F-0.00029999999999999997
sa(dp1792
g5
g997
sg10
F269
sg11
F-0.00029999999999999997
sa(dp1793
g5
g995
sg10
F66
sg11
F-0.00029999999999999997
sas(F0.66000000000000003
F-0.02
tp1794
(lp1795
(dp1796
g5
g142
sg10
F36
sg11
F0
sa(dp1797
g5
g186
sg10
F1
sg11
F0
sas(F0.92000000000000004
F0.78000000000000003
tp1798
(lp1799
(dp1800
g5
g1697
sg10
F2
sg11
F-0.098799999999999999
sa(dp1801
g5
g17
sg10
F1
sg11
F-0.17699999999999999
sas(F0.17000000000000001
F0.01
tp1802
(lp1803
(dp1804
g30
g6
(g8
S'\xa0\x14\xaeG\xe1z\xd4?'
tRp1805
sg32
F1038
sg33
F0
sa(dp1806
g30
g490
sg32
F1
sg33
F0
sa(dp1807
g30
g1543
sg32
F1
sg33
F0
sa(dp1808
g41
g6
(g8
S'sfffff\xf2?'
tRp1809
sg43
F1
sg44
F0
sas(F0.73999999999999999
F0.01
tp1810
(lp1811
(dp1812
g5
g6
(g8
S'j\x8f\xc2\xf5(\\\xf7?'
tRp1813
sg10
F27
sg11
F0
sas(F-0.040000000000000001
F0.01
tp1814
(lp1815
(dp1816
g21
g1492
sg23
F597
sg24
F0.81850000000000001
sa(dp1817
g30
g515
sg32
F1
sg33
F0.26669999999999999
sa(dp1818
g30
g671
sg32
F1
sg33
F0.16170000000000001
sa(dp1819
g41
g6
(g8
S'\x16\x00\x00\x00\x00\x00\xe8?'
tRp1820
sg43
F1
sg44
F0.31190000000000001
sa(dp1821
g41
g1005
sg43
F106
sg44
F0.62150000000000005
sas(F0.51000000000000001
F-0.02
tp1822
(lp1823
(dp1824
g5
g1042
sg10
F62
sg11
F0
sa(dp1825
g5
g6
(g8
S'\x02)\\\x8f\xc2\xf5\xf0?'
tRp1826
sg10
F1
sg11
F0
sa(dp1827
g5
g1640
sg10
F1
sg11
F0
sas(F0.92000000000000004
F0.80000000000000004
tp1828
(lp1829
(dp1830
g5
g6
(g8
S'+\x85\xebQ\xb8\x1e\xf1?'
tRp1831
sg10
F2
sg11
F-0.1363
sas(F0.62
F0.01
tp1832
(lp1833
(dp1834
g5
g391
sg10
F211
sg11
F0
sas(F0.92000000000000004
F0.71999999999999997
tp1835
(lp1836
(dp1837
g5
g1446
sg10
F2
sg11
F-0.14630000000000001
sa(dp1838
g5
g17
sg10
F2
sg11
F-0.25800000000000001
sas(F0.45000000000000001
F0.01
tp1839
(lp1840
(dp1841
g5
g728
sg10
F170
sg11
F0
sa(dp1842
g5
g730
sg10
F1
sg11
F0
sas(F0.56000000000000005
F0
tp1843
(lp1844
(dp1845
g5
g6
(g8
S'\x8e\x99\x99\x99\x99\x99\xe1\xbf'
tRp1846
sg10
F1292
sg11
F0
sa(dp1847
g5
g6
(g8
S'C33333\xff?'
tRp1848
sg10
F1
sg11
F0
sa(dp1849
g5
g1697
sg10
F1
sg11
F0
sa(dp1850
g5
g1703
sg10
F1
sg11
F0
sas(F0.32000000000000001
F0.38
tp1851
(lp1852
(dp1853
g30
g6
(g8
S'@\x1e\x85\xebQ\xb8\xbe\xbf'
tRp1854
sg32
F4
sg33
F-0.30249999999999999
sa(dp1855
g41
g6
(g8
S'\xb0\x1e\x85\xebQ\xb8\xee\xbf'
tRp1856
sg43
F1
sg44
F-0.056599999999999998
sa(dp1857
g41
g6
(g8
S'\xe7\xa3p=\n\xd7\xff?'
tRp1858
sg43
F1
sg44
F-0.1731
sas(F-0.20999999999999999
F0.02
tp1859
(lp1860
(dp1861
g5
g699
sg10
F3
sg11
F0
sas(F0.92000000000000004
F0.98999999999999999
tp1862
(lp1863
(dp1864
g5
g1083
sg10
F7
sg11
F-0.42680000000000001
sa(dp1865
g5
g17
sg10
F2
sg11
F-0.22289999999999999
sas(F-0.35999999999999999
F0.01
tp1866
(lp1867
(dp1868
g133
g6
(g8
S'\xa4G\xe1z\x14\xae\xe7\xbf'
tRp1869
sg135
F5
sg136
F-0.00089999999999999998
sa(dp1870
g5
g6
(g8
S'\xb0\\\x8f\xc2\xf5(\xbc?'
tRp1871
sg10
F163
sg11
F-0
sa(dp1872
g5
g6
(g8
S'\x90\xd7\xa3p=\n\xb7?'
tRp1873
sg10
F1
sg11
F-0
sas(F-0.27000000000000002
F0.01
tp1874
(lp1875
(dp1876
g30
g693
sg32
F251
sg33
F0
sa(dp1877
g5
g271
sg10
F1
sg11
F0
sa(dp1878
g5
g617
sg10
F1
sg11
F0
sas(F-0.32000000000000001
F-0.02
tp1879
(lp1880
(dp1881
g5
g6
(g8
S'(33333\xe3\xbf'
tRp1882
sg10
F2
sg11
F-0
sas(F0.46999999999999997
F-0.02
tp1883
(lp1884
(dp1885
g5
g504
sg10
F44
sg11
F0
sa(dp1886
g5
g500
sg10
F1
sg11
F0
sa(dp1887
g5
g498
sg10
F1
sg11
F0
sas(F0.92000000000000004
F0.46999999999999997
tp1888
(lp1889
(dp1890
g5
g1633
sg10
F8
sg11
F-0.53190000000000004
sa(dp1891
g5
g17
sg10
F3
sg11
F-0.22209999999999999
sas(F0.92000000000000004
F0.56000000000000005
tp1892
(lp1893
(dp1894
g5
g542
sg10
F2
sg11
F-0.098799999999999999
sa(dp1895
g5
g17
sg10
F2
sg11
F-0.1762
sas(F0.01
F0.01
tp1896
(lp1897
(dp1898
g21
g6
(g8
S'\x00\x00\x00\x00\x00\x00\xe0<'
tRp1899
sg23
F510
sg24
F0.82820000000000005
sa(dp1900
g30
g233
sg32
F46
sg33
F0.86199999999999999
sa(dp1901
g30
g6
(g8
S'\xda\xf5(\\\x8f\xc2\xed?'
tRp1902
sg32
F13
sg33
F0.86350000000000005
sa(dp1903
g41
g237
sg43
F81
sg44
F0.86360000000000003
sa(dp1904
g41
g6
(g8
S'\xa6\xc2\xf5(\\\x8f\xea?'
tRp1905
sg43
F112
sg44
F0.88570000000000004
sa(dp1906
g5
g6
(g8
S'\xc7\x1e\x85\xebQ\xb8\xfa?'
tRp1907
sg10
F49
sg11
F0.97499999999999998
sas(F0.64000000000000001
F0
tp1908
(lp1909
(dp1910
g5
g6
(g8
S'\xdc(\\\x8f\xc2\xf5\xd8\xbf'
tRp1911
sg10
F1664
sg11
F0
sa(dp1912
g5
g1359
sg10
F1
sg11
F0
sa(dp1913
g5
g6
(g8
S'\x88\x14\xaeG\xe1z\xf4?'
tRp1914
sg10
F1
sg11
F0
sa(dp1915
g5
g17
sg10
F1
sg11
F0
sas(F0.26000000000000001
F0.01
tp1916
(lp1917
(dp1918
g30
g6
(g8
S'\x14\x00\x00\x00\x00\x00\xe0?'
tRp1919
sg32
F1417
sg33
F0
sa(dp1920
g30
g6
(g8
S'A33333\xf7?'
tRp1921
sg32
F1
sg33
F0
sa(dp1922
g41
g6
(g8
S'\xa7\x99\x99\x99\x99\x99\xf5?'
tRp1923
sg43
F1
sg44
F0
sa(dp1924
g5
g6
(g8
S'U\xe1z\x14\xaeG\xf5?'
tRp1925
sg10
F1
sg11
F0
sas(F-0.26000000000000001
F-0.02
tp1926
(lp1927
(dp1928
g5
g575
sg10
F5
sg11
F0
sa(dp1929
g5
g780
sg10
F1
sg11
F0
sas(F-0.059999999999999998
F-0.02
tp1930
(lp1931
(dp1932
g5
g6
(g8
S'h=\n\xd7\xa3p\xed\xbf'
tRp1933
sg10
F23
sg11
F0.076700000000000004
sa(dp1934
g5
g1364
sg10
F1
sg11
F0.0025999999999999999
sas(F-0.17999999999999999
F-0.01
tp1935
(lp1936
(dp1937
g30
g1740
sg32
F307
sg33
F0
sa(dp1938
g30
g6
(g8
S'\xca\xcc\xcc\xcc\xcc\xcc\xf4\xbf'
tRp1939
sg32
F1
sg33
F0
sa(dp1940
g5
g1285
sg10
F1
sg11
F0
sa(dp1941
g5
g6
(g8
S'033333\xf3\xbf'
tRp1942
sg10
F1
sg11
F0
sa(dp1943
g5
g261
sg10
F1
sg11
F0
sas(F0.02
F-0.02
tp1944
(lp1945
(dp1946
g5
g901
sg10
F7
sg11
F0.82410000000000005
sa(dp1947
g5
g854
sg10
F36
sg11
F0.97250000000000003
sa(dp1948
g5
g1146
sg10
F1
sg11
F0.025000000000000001
sas(F-0.25
F0.02
tp1949
(lp1950
(dp1951
g5
g271
sg10
F3
sg11
F0
sas(F0.050000000000000003
F0.02
tp1952
(lp1953
(dp1954
g5
g1629
sg10
F4
sg11
F0.1273
sas(F0.32000000000000001
F0.23000000000000001
tp1955
(lp1956
(dp1957
g30
g6
(g8
S'P\xd7\xa3p=\n\xc7?'
tRp1958
sg32
F9
sg33
F-0.66739999999999999
sa(dp1959
g30
g97
sg32
F10
sg33
F-0.73699999999999999
sas(F0.54000000000000004
F-0.02
tp1960
(lp1961
(dp1962
g5
g1697
sg10
F57
sg11
F0
sa(dp1963
g5
g1703
sg10
F1
sg11
F0
sa(dp1964
g5
g1040
sg10
F1
sg11
F0
sas(F0.32000000000000001
F0.22
tp1965
(lp1966
(dp1967
g30
g6
(g8
S'\xe0\x99\x99\x99\x99\x99\xc9?'
tRp1968
sg32
F10
sg33
F-0.89419999999999999
sa(dp1969
g30
g97
sg32
F9
sg33
F-0.87470000000000003
sas(F0.10000000000000001
F-0.02
tp1970
(lp1971
(dp1972
g5
g1044
sg10
F44
sg11
F0.010500000000000001
sa(dp1973
g5
g1882
sg10
F5
sg11
F0.0035000000000000001
sa(dp1974
g5
g829
sg10
F1
sg11
F0.00040000000000000002
sa(dp1975
g5
g607
sg10
F1
sg11
F0.0001
sas(F0.42999999999999999
F-0.01
tp1976
(lp1977
(dp1978
g5
g627
sg10
F220
sg11
F0
sa(dp1979
g5
g955
sg10
F1
sg11
F0
sa(dp1980
g5
g728
sg10
F1
sg11
F0
sas(F0.75
F-0.01
tp1981
(lp1982
(dp1983
g5
g813
sg10
F257
sg11
F0
sa(dp1984
g5
g815
sg10
F1
sg11
F0
sa(dp1985
g5
g546
sg10
F1
sg11
F0
sas(F0.32000000000000001
F0.040000000000000001
tp1986
(lp1987
(dp1988
g30
g6
(g8
S'\x00R\xb8\x1e\x85\xeb\xe1?'
tRp1989
sg32
F7
sg33
F-0.61629999999999996
sa(dp1990
g30
g63
sg32
F11
sg33
F-0.57840000000000003
sa(dp1991
g30
g97
sg32
F9
sg33
F-0.58630000000000004
sas(F-0.62
F0.01
tp1992
(lp1993
(dp1994
g5
g258
sg10
F2
sg11
F0
sas(F0.17999999999999999
F0.02
tp1995
(lp1996
(dp1997
g5
g202
sg10
F2
sg11
F0
sas(F0.48999999999999999
F-0.01
tp1998
(lp1999
(dp2000
g5
g55
sg10
F255
sg11
F0
sa(dp2001
g5
g15
sg10
F1
sg11
F0
sa(dp2002
g5
g500
sg10
F1
sg11
F0
sa(dp2003
g5
g53
sg10
F1
sg11
F0
sas(F0.79000000000000004
F0.01
tp2004
(lp2005
(dp2006
g5
g544
sg10
F2
sg11
F0
sas(F0.19
F-0.02
tp2007
(lp2008
(dp2009
g5
g1029
sg10
F42
sg11
F0
sa(dp2010
g5
g6
(g8
S'\xc8z\x14\xaeG\xe1\xda\xbf'
tRp2011
sg10
F1
sg11
F0
sa(dp2012
g5
g225
sg10
F1
sg11
F0
sa(dp2013
g5
g701
sg10
F1
sg11
F0
sas(F0.040000000000000001
F-0.01
tp2014
(lp2015
(dp2016
g21
g1774
sg23
F855
sg24
F0.58120000000000005
sa(dp2017
g30
g519
sg32
F1
sg33
F0.1353
sa(dp2018
g30
g667
sg32
F1
sg33
F0.18390000000000001
sa(dp2019
g41
g6
(g8
S'\xa4G\xe1z\x14\xae\xe7\xbf'
tRp2020
sg43
F1
sg44
F0.55610000000000004
sa(dp2021
g41
g1191
sg43
F1
sg44
F0.5474
sa(dp2022
g5
g6
(g8
S'\x1d\x85\xebQ\xb8\x1e\xf9\xbf'
tRp2023
sg10
F36
sg11
F0.77969999999999995
sas(F-0.040000000000000001
F0.02
tp2024
(lp2025
(dp2026
g133
g6
(g8
S'\xce\x1e\x85\xebQ\xb8\xe6?'
tRp2027
sg135
F8
sg136
F0.2477
sas(F0.32000000000000001
F0.13
tp2028
(lp2029
(dp2030
g30
g323
sg32
F17
sg33
F-1.2374000000000001
sa(dp2031
g30
g97
sg32
F19
sg33
F-1.2199
sas(F0.10000000000000001
F0.01
tp2032
(lp2033
(dp2034
g21
g1260
sg23
F669
sg24
F0.0018
sa(dp2035
g41
g6
(g8
S'\x87\x14\xaeG\xe1z\xf0?'
tRp2036
sg43
F1
sg44
F0
sa(dp2037
g5
g6
(g8
S'5\\\x8f\xc2\xf5(\xf0?'
tRp2038
sg10
F37
sg11
F0.0011999999999999999
sas(F0.57999999999999996
F0.01
tp2039
(lp2040
(dp2041
g5
g6
(g8
S'J\n\xd7\xa3p=\xf2?'
tRp2042
sg10
F207
sg11
F0
sa(dp2043
g5
g6
(g8
S'\x95\xebQ\xb8\x1e\x85\xff?'
tRp2044
sg10
F1
sg11
F0
sa(dp2045
g5
g17
sg10
F1
sg11
F0
sas(F0.92000000000000004
F0.97999999999999998
tp2046
(lp2047
(dp2048
g5
g377
sg10
F3
sg11
F-0.2281
sa(dp2049
g5
g17
sg10
F1
sg11
F-0.088800000000000004
sas(F0.40000000000000002
F-0.02
tp2050
(lp2051
(dp2052
g5
g168
sg10
F43
sg11
F0
sa(dp2053
g5
g415
sg10
F1
sg11
F0
sa(dp2054
g5
g6
(g8
S'\x86\xc2\xf5(\\\x8f\xea\xbf'
tRp2055
sg10
F1
sg11
F0
sas(F0.19
F0
tp2056
(lp2057
(dp2058
g21
g6
(g8
S'\x10\\\x8f\xc2\xf5(\xdc\xbf'
tRp2059
sg23
F8826
sg24
F0
sa(dp2060
g21
g691
sg23
F1
sg24
F0
sa(dp2061
g30
g310
sg32
F1
sg33
F0
sa(dp2062
g30
g69
sg32
F1
sg33
F0
sa(dp2063
g30
g6
(g8
S'\xea(\\\x8f\xc2\xf5\xe0\xbf'
tRp2064
sg32
F1
sg33
F0
sa(dp2065
g30
g693
sg32
F1
sg33
F0
sa(dp2066
g30
g327
sg32
F1
sg33
F0
sa(dp2067
g41
g6
(g8
S'i\x8f\xc2\xf5(\\\xf3?'
tRp2068
sg43
F1
sg44
F0
sa(dp2069
g5
g701
sg10
F1
sg11
F0
sas(F0.20000000000000001
F0.02
tp2070
(lp2071
(dp2072
g5
g393
sg10
F1
sg11
F0
sas(F0.92000000000000004
F0.84999999999999998
tp2073
(lp2074
(dp2075
g5
g500
sg10
F2
sg11
F-0.3145
sa(dp2076
g5
g17
sg10
F2
sg11
F-0.33550000000000002
sas(F0.51000000000000001
F0.01
tp2077
(lp2078
(dp2079
g5
g53
sg10
F181
sg11
F0
sa(dp2080
g5
g6
(g8
S'W\xe1z\x14\xaeG\xfd?'
tRp2081
sg10
F1
sg11
F0
sas(F0.65000000000000002
F0.01
tp2082
(lp2083
(dp2084
g5
g1914
sg10
F215
sg11
F0
sas(F0.47999999999999998
F0.01
tp2085
(lp2086
(dp2087
g5
g797
sg10
F186
sg11
F0
sa(dp2088
g5
g1477
sg10
F1
sg11
F0
sas(F0.92000000000000004
F0.27000000000000002
tp2089
(lp2090
(dp2091
g5
g6
(g8
S'\xda\xcc\xcc\xcc\xcc\xcc\xf4?'
tRp2092
sg10
F13
sg11
F-0.7228
sa(dp2093
g5
g17
sg10
F4
sg11
F-0.34399999999999997
sas(F0.82999999999999996
F0
tp2094
(lp2095
(dp2096
g5
g565
sg10
F118
sg11
F0
sa(dp2097
g5
g563
sg10
F1
sg11
F0
sas(F0.32000000000000001
F0.5
tp2098
(lp2099
(dp2100
g30
g1290
sg32
F1
sg33
F-0.050000000000000003
sa(dp2101
g30
g97
sg32
F1
sg33
F-0.088300000000000003
sas(F-0.23999999999999999
F0.01
tp2102
(lp2103
(dp2104
g30
g196
sg32
F254
sg33
F0
sa(dp2105
g5
g989
sg10
F1
sg11
F0
sa(dp2106
g5
g577
sg10
F1
sg11
F0
sa(dp2107
g5
g6
(g8
S'\xc5\x1e\x85\xebQ\xb8\xf2?'
tRp2108
sg10
F1
sg11
F0
sas(F0.089999999999999997
F-0.02
tp2109
(lp2110
(dp2111
g5
g1042
sg10
F38
sg11
F0.023199999999999998
sa(dp2112
g5
g6
(g8
S'\xcc\xa3p=\n\xd7\xe3\xbf'
tRp2113
sg10
F1
sg11
F0.0061999999999999998
sa(dp2114
g5
g6
(g8
S'133333\xf7\xbf'
tRp2115
sg10
F1
sg11
F0.0001
sas(F0.40999999999999998
F-0.01
tp2116
(lp2117
(dp2118
g5
g415
sg10
F202
sg11
F0
sa(dp2119
g5
g2055
sg10
F1
sg11
F0
sa(dp2120
g5
g168
sg10
F1
sg11
F0
sa(dp2121
g5
g925
sg10
F1
sg11
F0
sas(F0.35999999999999999
F-0.029999999999999999
tp2122
(lp2123
(dp2124
g5
g929
sg10
F1
sg11
F0
sas(F0.23000000000000001
F-0.02
tp2125
(lp2126
(dp2127
g5
g1283
sg10
F40
sg11
F0
sa(dp2128
g5
g353
sg10
F1
sg11
F0
sa(dp2129
g5
g75
sg10
F1
sg11
F0
sas(F0.38
F0.01
tp2130
(lp2131
(dp2132
g5
g375
sg10
F174
sg11
F0
sa(dp2133
g5
g835
sg10
F1
sg11
F0
sas(F-0.25
F0
tp2134
(lp2135
(dp2136
g30
g6
(g8
S'\x08\xd7\xa3p=\n\xf7\xbf'
tRp2137
sg32
F484
sg33
F0
sa(dp2138
g30
g196
sg32
F1
sg33
F0
sa(dp2139
g5
g337
sg10
F1
sg11
F0
sa(dp2140
g5
g989
sg10
F1
sg11
F0
sas(F-0.13
F0
tp2141
(lp2142
(dp2143
g21
g6
(g8
S'D\xe1z\x14\xaeG\xf1\xbf'
tRp2144
sg23
F1498
sg24
F0
sa(dp2145
g21
g1087
sg23
F1
sg24
F0
sa(dp2146
g21
g6
(g8
S'\xae\x99\x99\x99\x99\x99\xe1?'
tRp2147
sg23
F1
sg24
F0
sa(dp2148
g30
g6
(g8
S'033333\xf3\xbf'
tRp2149
sg32
F1
sg33
F0
sa(dp2150
g30
g6
(g8
S'\x86=\n\xd7\xa3p\xe5?'
tRp2151
sg32
F1
sg33
F0
sa(dp2152
g41
g6
(g8
S'\x96\x99\x99\x99\x99\x99\xf1\xbf'
tRp2153
sg43
F1
sg44
F0
sa(dp2154
g41
g6
(g8
S'R\n\xd7\xa3p=\xe2?'
tRp2155
sg43
F1
sg44
F0
sa(dp2156
g5
g1092
sg10
F1
sg11
F0
sas(F-0.28999999999999998
F0.01
tp2157
(lp2158
(dp2159
g133
g6
(g8
S'(33333\xe3\xbf'
tRp2160
sg135
F228
sg136
F0
sa(dp2161
g5
g1312
sg10
F1
sg11
F0
sa(dp2162
g5
g6
(g8
S'\xb8=\n\xd7\xa3p\xcd?'
tRp2163
sg10
F1
sg11
F0
sas(F0.92000000000000004
F1.01
tp2164
(lp2165
(dp2166
g5
g1789
sg10
F7
sg11
F-0.35830000000000001
sa(dp2167
g5
g17
sg10
F2
sg11
F-0.40510000000000002
sas(F0.070000000000000007
F0.01
tp2168
(lp2169
(dp2170
g21
g6
(g8
S'@\x1f\x85\xebQ\xb8\xbe?'
tRp2171
sg23
F627
sg24
F0.015599999999999999
sa(dp2172
g30
g6
(g8
S'+\x85\xebQ\xb8\x1e\xf1?'
tRp2173
sg32
F1
sg33
F0.00089999999999999998
sa(dp2174
g30
g1776
sg32
F1
sg33
F0.00080000000000000004
sa(dp2175
g41
g6
(g8
S'"\xd7\xa3p=\n\xef?'
tRp2176
sg43
F1
sg44
F0.0040000000000000001
sa(dp2177
g41
g1733
sg43
F1
sg44
F0.00029999999999999997
sa(dp2178
g5
g1017
sg10
F78
sg11
F0.0143
sas(F0.63
F0.01
tp2179
(lp2180
(dp2181
g5
g1784
sg10
F215
sg11
F0
sas(F-0.38
F0
tp2182
(lp2183
(dp2184
g5
g6
(g8
S'\x98\x99\x99\x99\x99\x99\xf9\xbf'
tRp2185
sg10
F3
sg11
F-0.00089999999999999998
sa(dp2186
g5
g854
sg10
F1
sg11
F-0.00089999999999999998
sa(dp2187
g5
g642
sg10
F745
sg11
F0
sas(F0.65000000000000002
F-0.01
tp2188
(lp2189
(dp2190
g5
g1035
sg10
F369
sg11
F0
sa(dp2191
g5
g6
(g8
S'Lfffff\xd6\xbf'
tRp2192
sg10
F1
sg11
F0
sa(dp2193
g5
g405
sg10
F1
sg11
F0
sa(dp2194
g5
g6
(g8
S'\x98=\n\xd7\xa3p\xdd?'
tRp2195
sg10
F1
sg11
F0
sas(F0.71999999999999997
F0.71999999999999997
tp2196
(lp2197
(dp2198
S'action'
p2199
g6
(g8
S'\x00\x00\x00\x00\x00\x00\xe0<'
tRp2200
sS'count'
p2201
F2
sS'value'
p2202
F-0.097500000000000003
sas(F-0.40999999999999998
F0.01
tp2203
(lp2204
(dp2205
g133
g6
(g8
S'\x80\x10\xaeG\xe1z\x84\xbf'
tRp2206
sg135
F1
sg136
F-0.042900000000000001
sa(dp2207
g5
g6
(g8
S'\xd8z\x14\xaeG\xe1\xea\xbf'
tRp2208
sg10
F3
sg11
F-0.0001
sa(dp2209
g5
g170
sg10
F83
sg11
F-0
sas(F0.25
F0.01
tp2210
(lp2211
(dp2212
g30
g6
(g8
S'\xe0\x1e\x85\xebQ\xb8\xde?'
tRp2213
sg32
F1374
sg33
F0
sa(dp2214
g30
g6
(g8
S'\x9d\xc2\xf5(\\\x8f\xf6?'
tRp2215
sg32
F1
sg33
F0
sa(dp2216
g41
g6
(g8
S'\x03)\\\x8f\xc2\xf5\xf4?'
tRp2217
sg43
F1
sg44
F0
sas(F-0.14000000000000001
F0
tp2218
(lp2219
(dp2220
g21
g6
(g8
S'\x96\x99\x99\x99\x99\x99\xf1\xbf'
tRp2221
sg23
F1478
sg24
F0
sa(dp2222
g21
g1324
sg23
F1
sg24
F0
sa(dp2223
g21
g6
(g8
S'\n)\\\x8f\xc2\xf5\xe0?'
tRp2224
sg23
F1
sg24
F0
sa(dp2225
g30
g1089
sg32
F1
sg33
F0
sa(dp2226
g30
g6
(g8
S'\xe2\xcc\xcc\xcc\xcc\xcc\xe4?'
tRp2227
sg32
F1
sg33
F0
sa(dp2228
g41
g6
(g8
S'\xe8Q\xb8\x1e\x85\xeb\xf1\xbf'
tRp2229
sg43
F1
sg44
F0
sa(dp2230
g41
g6
(g8
S'\xae\x99\x99\x99\x99\x99\xe1?'
tRp2231
sg43
F1
sg44
F0
sa(dp2232
g5
g1327
sg10
F1
sg11
F0
sas(F0.92000000000000004
F1.0700000000000001
tp2233
(lp2234
(dp2235
g5
g6
(g8
S'\x1833333\xd3\xbf'
tRp2236
sg10
F3
sg11
F-0.2288
sa(dp2237
g5
g17
sg10
F4
sg11
F-0.30120000000000002
sas(F-0.59999999999999998
F0.01
tp2238
(lp2239
(dp2240
g5
g1151
sg10
F2
sg11
F0
sas(F0.75
F-0.02
tp2241
(lp2242
(dp2243
g5
g437
sg10
F8
sg11
F0
sa(dp2244
g5
g439
sg10
F1
sg11
F0
sas(F-0.40000000000000002
F0
tp2245
(lp2246
(dp2247
g133
g6
(g8
S'\xc0 \x85\xebQ\xb8\x9e?'
tRp2248
sg135
F1
sg136
F-0.0061999999999999998
sa(dp2249
g5
g6
(g8
S'<\n\xd7\xa3p=\xfa\xbf'
tRp2250
sg10
F552
sg11
F-0.00089999999999999998
sa(dp2251
g5
g399
sg10
F10
sg11
F-0.00089999999999999998
sas(F0.92000000000000004
F0.96999999999999997
tp2252
(lp2253
(dp2254
g5
g371
sg10
F5
sg11
F-0.46079999999999999
sa(dp2255
g5
g17
sg10
F4
sg11
F-0.67059999999999997
sa(dp2256
g5
g6
(g8
S'r\x8f\xc2\xf5(\\\xe7?'
tRp2257
sg10
F3
sg11
F-0.19339999999999999
sas(F-0.46999999999999997
F-0.01
tp2258
(lp2259
(dp2260
g133
g784
sg135
F2
sg136
F-0.024299999999999999
sa(dp2261
g5
g6
(g8
S'(\\\x8f\xc2\xf5(\xfc\xbf'
tRp2262
sg10
F5
sg11
F-0.001
sa(dp2263
g5
g261
sg10
F20
sg11
F-0
sas(F0.89000000000000001
F0
tp2264
(lp2265
(dp2266
g5
g797
sg10
F319
sg11
F-0.0111
sa(dp2267
g5
g794
sg10
F2
sg11
F-0.047500000000000001
sas(F0.32000000000000001
F0.080000000000000002
tp2268
(lp2269
(dp2270
g30
g2213
sg32
F13
sg33
F-0.97819999999999996
sa(dp2271
g30
g97
sg32
F13
sg33
F-1.0304
sa(dp2272
g41
g2217
sg43
F2
sg44
F-0.1593
sas(F-0.34999999999999998
F-0.01
tp2273
(lp2274
(dp2275
g133
g6
(g8
S'P\xb8\x1e\x85\xebQ\xf8\xbf'
tRp2276
sg135
F1
sg136
F-0.024400000000000002
sa(dp2277
g5
g6
(g8
S'\xb8\xf5(\\\x8f\xc2\xe5\xbf'
tRp2278
sg10
F196
sg11
F0
sas(F-0.58999999999999997
F-0.01
tp2279
(lp2280
(dp2281
g5
g1529
sg10
F2
sg11
F0
sas(F0.10000000000000001
F-0.029999999999999999
tp2282
(lp2283
(dp2284
g5
g939
sg10
F1
sg11
F0.00089999999999999998
sas(F0.32000000000000001
F0.40999999999999998
tp2285
(lp2286
(dp2287
g30
g39
sg32
F6
sg33
F-0.38019999999999998
sas(F0.17999999999999999
F0.01
tp2288
(lp2289
(dp2290
g30
g6
(g8
S'\xe8\xf5(\\\x8f\xc2\xd5?'
tRp2291
sg32
F1056
sg33
F0
sa(dp2292
g30
g490
sg32
F1
sg33
F0
sa(dp2293
g30
g6
(g8
S'\xb1p=\n\xd7\xa3\xf4?'
tRp2294
sg32
F1
sg33
F0
sa(dp2295
g41
g6
(g8
S'\x17\xd7\xa3p=\n\xf3?'
tRp2296
sg43
F1
sg44
F0
sa(dp2297
g5
g2108
sg10
F1
sg11
F0
sas(F-0.59999999999999998
F0
tp2298
(lp2299
(dp2300
g5
g261
sg10
F3
sg11
F0
sas(F-0.20999999999999999
F-0.01
tp2301
(lp2302
(dp2303
g30
g65
sg32
F265
sg33
F0
sa(dp2304
g5
g1207
sg10
F1
sg11
F0
sa(dp2305
g5
g258
sg10
F1
sg11
F0
sas(F0.92000000000000004
F0.82999999999999996
tp2306
(lp2307
(dp2308
g5
g107
sg10
F3
sg11
F-0.27179999999999999
sa(dp2309
g5
g17
sg10
F2
sg11
F-0.25659999999999999
sa(dp2310
g5
g6
(g8
S'\x14\x85\xebQ\xb8\x1e\xe5\xbf'
tRp2311
sg10
F4
sg11
F-0.26979999999999998
sas(F0.44
F-0.01
tp2312
(lp2313
(dp2314
g5
g1629
sg10
F233
sg11
F0
sa(dp2315
g5
g1627
sg10
F1
sg11
F0
sa(dp2316
g5
g1633
sg10
F1
sg11
F0
sa(dp2317
g5
g627
sg10
F1
sg11
F0
sas(F-0.32000000000000001
F-0.01
tp2318
(lp2319
(dp2320
g133
g6
(g8
S'\xcc\xa3p=\n\xd7\xe3\xbf'
tRp2321
sg135
F4
sg136
F-0.00089999999999999998
sa(dp2322
g5
g6
(g8
S'Z\x8f\xc2\xf5(\\\xf7\xbf'
tRp2323
sg10
F213
sg11
F-0.00029999999999999997
sas(F0.91000000000000003
F-0.01
tp2324
(lp2325
(dp2326
g5
g6
(g8
S'\x80=\n\xd7\xa3p\xfd?'
tRp2327
sg10
F233
sg11
F-0.048399999999999999
sa(dp2328
g5
g504
sg10
F28
sg11
F-0.0070000000000000001
sas(F0.32000000000000001
F0.31
tp2329
(lp2330
(dp2331
g21
g229
sg23
F26
sg24
F-1.6773
sa(dp2332
g21
g6
(g8
S'\xe7\xa3p=\n\xd7\xff?'
tRp2333
sg23
F13
sg24
F-1.7943
sa(dp2334
g41
g237
sg43
F11
sg44
F-0.68059999999999998
sas(F-0.089999999999999997
F0.01
tp2335
(lp2336
(dp2337
g21
g6
(g8
S'`\x99\x99\x99\x99\x99\xc9\xbf'
tRp2338
sg23
F576
sg24
F0.015800000000000002
sa(dp2339
g30
g39
sg32
F1
sg33
F0
sa(dp2340
g30
g1567
sg32
F1
sg33
F0
sa(dp2341
g41
g46
sg43
F1
sg44
F0
sa(dp2342
g41
g1570
sg43
F1
sg44
F0.0137
sas(F-0.39000000000000001
F0.01
tp2343
(lp2344
(dp2345
g133
g6
(g8
S'\x90\x99\x99\x99\x99\x99\xe9\xbf'
tRp2346
sg135
F21
sg136
F-0.0014
sa(dp2347
g5
g6
(g8
S'\xc0 \x85\xebQ\xb8\x9e?'
tRp2348
sg10
F89
sg11
F-0
sas(F0.55000000000000004
F0.02
tp2349
(lp2350
(dp2351
g5
g1826
sg10
F1
sg11
F0
sas(F-0.11
F0
tp2352
(lp2353
(dp2354
g21
g6
(g8
S'\xa0p=\n\xd7\xa3\xf0\xbf'
tRp2355
sg23
F1805
sg24
F0.00020000000000000001
sa(dp2356
g21
g111
sg23
F1
sg24
F0.0001
sa(dp2357
g21
g6
(g8
S'\xf6z\x14\xaeG\xe1\xe2?'
tRp2358
sg23
F1
sg24
F0
sa(dp2359
g30
g6
(g8
S'\x8c\xc2\xf5(\\\x8f\xf2\xbf'
tRp2360
sg32
F1
sg33
F0
sa(dp2361
g30
g1063
sg32
F1
sg33
F0
sa(dp2362
g41
g113
sg43
F1
sg44
F0
sa(dp2363
g41
g6
(g8
S'\x9a\xebQ\xb8\x1e\x85\xe3?'
tRp2364
sg43
F136
sg44
F0.0012999999999999999
sa(dp2365
g5
g115
sg10
F1
sg11
F0
sas(F0.78000000000000003
F-0.01
tp2366
(lp2367
(dp2368
g5
g375
sg10
F225
sg11
F0
sa(dp2369
g5
g6
(g8
S'V\xe1z\x14\xaeG\xf9?'
tRp2370
sg10
F1
sg11
F0
sa(dp2371
g5
g542
sg10
F1
sg11
F0
sas(F0.32000000000000001
F0.25
tp2372
(lp2373
(dp2374
g30
g6
(g8
S'0R\xb8\x1e\x85\xeb\xc1?'
tRp2375
sg32
F10
sg33
F-0.58079999999999998
sa(dp2376
g30
g97
sg32
F4
sg33
F-0.63939999999999997
sas(F-0.46000000000000002
F0.01
tp2377
(lp2378
(dp2379
g133
g6
(g8
S'\xb0[\x8f\xc2\xf5(\xbc\xbf'
tRp2380
sg135
F1
sg136
F-0.051200000000000002
sa(dp2381
g5
g243
sg10
F31
sg11
F-0.00080000000000000004
sas(F0.76000000000000001
F0.01
tp2382
(lp2383
(dp2384
g5
g6
(g8
S'\x0e\x00\x00\x00\x00\x00\xf8?'
tRp2385
sg10
F13
sg11
F0
sas(F0.75
F0
tp2386
(lp2387
(dp2388
g5
g995
sg10
F310
sg11
F0
sa(dp2389
g5
g1242
sg10
F1
sg11
F0
sa(dp2390
g5
g2385
sg10
F1
sg11
F0
sas(F-0.51000000000000001
F0
tp2391
(lp2392
(dp2393
g133
g6
(g8
S'\xc2\xf5(\\\x8f\xc2\xfd\xbf'
tRp2394
sg135
F3
sg136
F-0.12690000000000001
sa(dp2395
g5
g6
(g8
S'N\xb8\x1e\x85\xebQ\xf0\xbf'
tRp2396
sg10
F9
sg11
F-0.0061000000000000004
sa(dp2397
g5
g6
(g8
S'\x18\xb8\x1e\x85\xebQ\xc8\xbf'
tRp2398
sg10
F148
sg11
F-0.0020999999999999999
sas(F-0.050000000000000003
F0.02
tp2399
(lp2400
(dp2401
g5
g1083
sg10
F1
sg11
F0.040899999999999999
sa(dp2402
g5
g6
(g8
S'*\xaeG\xe1z\x14\xe6?'
tRp2403
sg10
F5
sg11
F0.20399999999999999
sas(F-0.63
F0
tp2404
(lp2405
(dp2406
g5
g261
sg10
F7
sg11
F0
sas(F0.32000000000000001
F0.34000000000000002
tp2407
(lp2408
(dp2409
g30
g6
(g8
S'\x80\x13\xaeG\xe1z\xa4\xbf'
tRp2410
sg32
F15
sg33
F-0.95240000000000002
sa(dp2411
g30
g97
sg32
F5
sg33
F-0.98650000000000004
sas(F0.59999999999999998
F-0.02
tp2412
(lp2413
(dp2414
g5
g1784
sg10
F45
sg11
F0
sa(dp2415
g5
g1446
sg10
F1
sg11
F0
sa(dp2416
g5
g6
(g8
S'l\xebQ\xb8\x1e\x85\xdb\xbf'
tRp2417
sg10
F1
sg11
F0
sas(F-0.39000000000000001
F0
tp2418
(lp2419
(dp2420
g133
g6
(g8
S'\xeaQ\xb8\x1e\x85\xeb\xf9\xbf'
tRp2421
sg135
F1
sg136
F-0.0015
sa(dp2422
g5
g640
sg10
F689
sg11
F-0.00089999999999999998
sa(dp2423
g5
g6
(g8
S'\xa0\x9a\x99\x99\x99\x99\xa9?'
tRp2424
sg10
F54
sg11
F-0.00089999999999999998
sas(F-0.56999999999999995
F0.01
tp2425
(lp2426
(dp2427
g5
g1527
sg10
F3
sg11
F0
sas(F0.13
F-0.01
tp2428
(lp2429
(dp2430
g21
g6
(g8
S'\x10R\xb8\x1e\x85\xeb\xd1?'
tRp2431
sg23
F1067
sg24
F0.00020000000000000001
sa(dp2432
g30
g1511
sg32
F1
sg33
F0
sa(dp2433
g30
g6
(g8
S'\x14\x85\xebQ\xb8\x1e\xe5\xbf'
tRp2434
sg32
F1
sg33
F0
sa(dp2435
g41
g6
(g8
S'\x84\xc2\xf5(\\\x8f\xe2\xbf'
tRp2436
sg43
F1
sg44
F0
sa(dp2437
g41
g613
sg43
F67
sg44
F0.00089999999999999998
sa(dp2438
g5
g206
sg10
F1
sg11
F0
sas(F-0.01
F0.02
tp2439
(lp2440
(dp2441
g5
g929
sg10
F7
sg11
F1
sa(dp2442
g5
g6
(g8
S'\xbap=\n\xd7\xa3\xe8?'
tRp2443
sg10
F1
sg11
F0.023800000000000002
sas(F0.48999999999999999
F-0.02
tp2444
(lp2445
(dp2446
g5
g101
sg10
F55
sg11
F0
sa(dp2447
g5
g107
sg10
F1
sg11
F0
sa(dp2448
g5
g105
sg10
F1
sg11
F0
sa(dp2449
g5
g498
sg10
F1
sg11
F0
sas(F0.17000000000000001
F-0.02
tp2450
(lp2451
(dp2452
g5
g699
sg10
F43
sg11
F0
sa(dp2453
g5
g387
sg10
F1
sg11
F0
sa(dp2454
g5
g494
sg10
F1
sg11
F0
sa(dp2455
g5
g701
sg10
F1
sg11
F0
sas(F-0.37
F0.01
tp2456
(lp2457
(dp2458
g133
g6
(g8
S'pR\xb8\x1e\x85\xeb\xb1?'
tRp2459
sg135
F1
sg136
F-0.036900000000000002
sa(dp2460
g5
g854
sg10
F3
sg11
F-0.00089999999999999998
sa(dp2461
g5
g1873
sg10
F133
sg11
F0
sas(F0.14999999999999999
F-0.029999999999999999
tp2462
(lp2463
(dp2464
g5
g780
sg10
F1
sg11
F0
sas(F-0.41999999999999998
F0
tp2465
(lp2466
(dp2467
g5
g6
(g8
S'\xe0z\x14\xaeG\xe1\xfa\xbf'
tRp2468
sg10
F290
sg11
F-0.00089999999999999998
sa(dp2469
g5
g2208
sg10
F181
sg11
F-0.00089999999999999998
sa(dp2470
g5
g6
(g8
S'\x80\x10\xaeG\xe1z\x84\xbf'
tRp2471
sg10
F11
sg11
F-0.00089999999999999998
sas(F0.44
F0.02
tp2472
(lp2473
(dp2474
g5
g168
sg10
F1
sg11
F0
sas(F0.44
F0.01
tp2475
(lp2476
(dp2477
g5
g413
sg10
F171
sg11
F0
sa(dp2478
g5
g534
sg10
F1
sg11
F0
sas(F-0.040000000000000001
F-0.01
tp2479
(lp2480
(dp2481
g21
g1618
sg23
F698
sg24
F0.35720000000000002
sa(dp2482
g30
g6
(g8
S'N\xb8\x1e\x85\xebQ\xf0\xbf'
tRp2483
sg32
F1
sg33
F0.183
sa(dp2484
g41
g6
(g8
S'h=\n\xd7\xa3p\xed\xbf'
tRp2485
sg43
F1
sg44
F0.095500000000000002
sa(dp2486
g41
g1664
sg43
F19
sg44
F0.68030000000000002
sa(dp2487
g5
g6
(g8
S'\xadG\xe1z\x14\xae\xfb\xbf'
tRp2488
sg10
F1
sg11
F0.30449999999999999
sas(F0.32000000000000001
F0.01
tp2489
(lp2490
(dp2491
g30
g6
(g8
S'\xec\xa3p=\n\xd7\xe3?'
tRp2492
sg32
F571
sg33
F-1.3483000000000001
sa(dp2493
g30
g125
sg32
F280
sg33
F-1.8203
sa(dp2494
g41
g127
sg43
F358
sg44
F-1.3398000000000001
sas(F-0.53000000000000003
F-0.01
tp2495
(lp2496
(dp2497
g133
g6
(g8
S'\xa0p=\n\xd7\xa3\xf0\xbf'
tRp2498
sg135
F14
sg136
F-0.0287
sas(F0.60999999999999999
F-0.01
tp2499
(lp2500
(dp2501
g5
g1446
sg10
F338
sg11
F0
sa(dp2502
g5
g2417
sg10
F1
sg11
F0
sa(dp2503
g5
g1784
sg10
F1
sg11
F0
sa(dp2504
g5
g387
sg10
F1
sg11
F0
sas(F0.92000000000000004
F0.89000000000000001
tp2505
(lp2506
(dp2507
g5
g1629
sg10
F8
sg11
F-1.0130999999999999
sa(dp2508
g5
g17
sg10
F1
sg11
F-1.0122
sas(F0.32000000000000001
F-0.01
tp2509
(lp2510
(dp2511
g5
g1791
sg10
F1
sg11
F-0.0019
sa(dp2512
g5
g1789
sg10
F15
sg11
F-0.001
sa(dp2513
g5
g995
sg10
F151
sg11
F-0.00089999999999999998
sa(dp2514
g5
g429
sg10
F26
sg11
F-0.001
sas(F-0.31
F-0.01
tp2515
(lp2516
(dp2517
g133
g2160
sg135
F11
sg136
F-0.00089999999999999998
sa(dp2518
g5
g6
(g8
S'\x08\xd7\xa3p=\n\xf7\xbf'
tRp2519
sg10
F203
sg11
F-0
sa(dp2520
g5
g2323
sg10
F1
sg11
F-0
sa(dp2521
g5
g261
sg10
F1
sg11
F-0
sas(F-0.41999999999999998
F-0.02
tp2522
(lp2523
(dp2524
g5
g2250
sg10
F1
sg11
F-0
sas(F0.32000000000000001
F0.34999999999999998
tp2525
(lp2526
(dp2527
g30
g6
(g8
S'\xc0\x1d\x85\xebQ\xb8\xae\xbf'
tRp2528
sg32
F3
sg33
F-0.46879999999999999
sa(dp2529
g30
g97
sg32
F1
sg33
F-0.60999999999999999
sa(dp2530
g30
g517
sg32
F8
sg33
F-0.49719999999999998
sas(F-0.66000000000000003
F0
tp2531
(lp2532
(dp2533
g5
g261
sg10
F5
sg11
F0
sa(dp2534
g5
g575
sg10
F1
sg11
F0
sas(F0.44
F-0.029999999999999999
tp2535
(lp2536
(dp2537
g5
g1607
sg10
F1
sg11
F0
sas(F0.77000000000000002
F0.01
tp2538
(lp2539
(dp2540
g5
g813
sg10
F4
sg11
F0
sa(dp2541
g5
g17
sg10
F1
sg11
F0
sas(F0.55000000000000004
F0.01
tp2542
(lp2543
(dp2544
g5
g1046
sg10
F203
sg11
F0
sa(dp2545
g5
g6
(g8
S'\x9f\xc2\xf5(\\\x8f\xfe?'
tRp2546
sg10
F1
sg11
F0
sas(F-0.22
F-0.01
tp2547
(lp2548
(dp2549
g30
g214
sg32
F269
sg33
F0
sa(dp2550
g5
g258
sg10
F1
sg11
F0
sa(dp2551
g5
g774
sg10
F1
sg11
F0
sa(dp2552
g5
g261
sg10
F1
sg11
F0
sas(F-0.59999999999999998
F-0.01
tp2553
(lp2554
(dp2555
g5
g1285
sg10
F2
sg11
F0
sas(F0.16
F0
tp2556
(lp2557
(dp2558
g21
g6
(g8
S'\xe8\xff\xff\xff\xff\xff\xdf\xbf'
tRp2559
sg23
F8091
sg24
F0
sa(dp2560
g21
g1540
sg23
F1
sg24
F0
sa(dp2561
g30
g219
sg32
F1
sg33
F0
sa(dp2562
g30
g157
sg32
F1
sg33
F0
sa(dp2563
g30
g6
(g8
S'\xd6z\x14\xaeG\xe1\xe2\xbf'
tRp2564
sg32
F1
sg33
F0
sa(dp2565
g30
g597
sg32
F1
sg33
F0
sa(dp2566
g30
g1543
sg32
F1
sg33
F0
sa(dp2567
g41
g1809
sg43
F1
sg44
F0
sa(dp2568
g5
g204
sg10
F1
sg11
F0
sas(F0.14000000000000001
F0.02
tp2569
(lp2570
(dp2571
g5
g1044
sg10
F2
sg11
F0
sas(F0.32000000000000001
F0.40000000000000002
tp2572
(lp2573
(dp2574
g30
g6
(g8
S'@\x14\xaeG\xe1z\xc4\xbf'
tRp2575
sg32
F4
sg33
F-0.2303
sa(dp2576
g30
g97
sg32
F1
sg33
F-0.17780000000000001
sas(F-0.040000000000000001
F-0.02
tp2577
(lp2578
(dp2579
g5
g6
(g8
S' \\\x8f\xc2\xf5(\xec\xbf'
tRp2580
sg10
F31
sg11
F0.71379999999999999
sa(dp2581
g5
g646
sg10
F1
sg11
F0.097900000000000001
sas(F-0.39000000000000001
F-0.01
tp2582
(lp2583
(dp2584
g133
g6
(g8
S'\x98\x99\x99\x99\x99\x99\xf9\xbf'
tRp2585
sg135
F1
sg136
F-0.036799999999999999
sa(dp2586
g5
g854
sg10
F1
sg11
F-0.0011000000000000001
sa(dp2587
g5
g6
(g8
S'\xeaQ\xb8\x1e\x85\xeb\xf9\xbf'
tRp2588
sg10
F127
sg11
F-0
sas(F-0.47999999999999998
F-0.01
tp2589
(lp2590
(dp2591
g133
g6
(g8
S'\x0c\xaeG\xe1z\x14\xee\xbf'
tRp2592
sg135
F4
sg136
F-0.031300000000000001
sa(dp2593
g5
g6
(g8
S'z\x14\xaeG\xe1z\xfc\xbf'
tRp2594
sg10
F22
sg11
F-0.0016000000000000001
sas(F0.02
F-0.01
tp2595
(lp2596
(dp2597
g21
g6
(g8
S'\xc0\x1f\x85\xebQ\xb8\xae?'
tRp2598
sg23
F743
sg24
F0.83460000000000001
sa(dp2599
g30
g1143
sg32
F30
sg33
F0.85040000000000004
sa(dp2600
g30
g673
sg32
F23
sg33
F0.85619999999999996
sa(dp2601
g41
g6
(g8
S'\x90\x99\x99\x99\x99\x99\xe9\xbf'
tRp2602
sg43
F40
sg44
F0.83999999999999997
sa(dp2603
g41
g6
(g8
S'\xec(\\\x8f\xc2\xf5\xe8\xbf'
tRp2604
sg43
F82
sg44
F0.85650000000000004
sa(dp2605
g5
g6
(g8
S'\xc1\xf5(\\\x8f\xc2\xf9\xbf'
tRp2606
sg10
F47
sg11
F1
sas(F0.32000000000000001
F0.32000000000000001
tp2607
(lp2608
(dp2609
g21
g1899
sg23
F2
sg24
F-1.1028
sa(dp2610
g21
g2333
sg23
F3
sg24
F-1.6011
sa(dp2611
g30
g803
sg32
F19
sg33
F-0.94199999999999995
sa(dp2612
g41
g806
sg43
F19
sg44
F-0.9526
sas(F0.41999999999999998
F0.01
tp2613
(lp2614
(dp2615
g5
g565
sg10
F160
sg11
F0
sa(dp2616
g5
g687
sg10
F1
sg11
F0
sas(F-0.5
F0.02
tp2617
(lp2618
(dp2619
g5
g6
(g8
S'\xa0p=\n\xd7\xa3\xf0\xbf'
tRp2620
sg10
F1
sg11
F-0.00089999999999999998
sas(F0.32000000000000001
F0.059999999999999998
tp2621
(lp2622
(dp2623
g30
g6
(g8
S'\xb8p=\n\xd7\xa3\xe0?'
tRp2624
sg32
F8
sg33
F-0.60329999999999995
sa(dp2625
g30
g97
sg32
F1
sg33
F-0.7218
sa(dp2626
g41
g1923
sg43
F9
sg44
F-0.54579999999999995
sas(F0.92000000000000004
F0.52000000000000002
tp2627
(lp2628
(dp2629
g5
g744
sg10
F2
sg11
F-0.2316
sa(dp2630
g5
g17
sg10
F4
sg11
F-0.30199999999999999
sas(F0.32000000000000001
F0.02
tp2631
(lp2632
(dp2633
g30
g121
sg32
F10
sg33
F-0.65500000000000003
sa(dp2634
g30
g97
sg32
F8
sg33
F-0.58799999999999997
sa(dp2635
g30
g1740
sg32
F11
sg33
F-0.63539999999999996
sas(F0.77000000000000002
F-0.02
tp2636
(lp2637
(dp2638
g5
g375
sg10
F7
sg11
F0
sas(F-0.13
F0.02
tp2639
(lp2640
(dp2641
g5
g2236
sg10
F1
sg11
F0
sas(F0.089999999999999997
F0
tp2642
(lp2643
(dp2644
g21
g6
(g8
S'p\x14\xaeG\xe1z\xe4\xbf'
tRp2645
sg23
F5023
sg24
F0
sa(dp2646
g21
g1260
sg23
F339
sg24
F0.0091999999999999998
sa(dp2647
g21
g6
(g8
S'\xc6G\xe1z\x14\xae\xef?'
tRp2648
sg23
F1
sg24
F0
sa(dp2649
g30
g2434
sg32
F257
sg33
F0.0091000000000000004
sa(dp2650
g30
g1511
sg32
F1
sg33
F0
sa(dp2651
g30
g6
(g8
S'R\x8f\xc2\xf5(\\\xe7\xbf'
tRp2652
sg32
F1
sg33
F0
sa(dp2653
g30
g821
sg32
F1
sg33
F0
sa(dp2654
g30
g6
(g8
S'\xcf\xf5(\\\x8f\xc2\xf1?'
tRp2655
sg32
F1
sg33
F0
sa(dp2656
g41
g6
(g8
S'5\\\x8f\xc2\xf5(\xf0?'
tRp2657
sg43
F1
sg44
F0.0022000000000000001
sa(dp2658
g5
g1267
sg10
F118
sg11
F0.0101
sas(F0.73999999999999999
F0
tp2659
(lp2660
(dp2661
g5
g2398
sg10
F316
sg11
F0
sa(dp2662
g5
g622
sg10
F1
sg11
F0
sa(dp2663
g5
g1463
sg10
F1
sg11
F0
sa(dp2664
g5
g17
sg10
F1
sg11
F0
sas(F0.41999999999999998
F0
tp2665
(lp2666
(dp2667
g5
g2055
sg10
F636
sg11
F0
sa(dp2668
g5
g415
sg10
F1
sg11
F0
sa(dp2669
g5
g1907
sg10
F1
sg11
F0
sa(dp2670
g5
g168
sg10
F1
sg11
F0
sas(F0.34000000000000002
F0
tp2671
(lp2672
(dp2673
g5
g1689
sg10
F698
sg11
F0
sa(dp2674
g5
g1488
sg10
F1
sg11
F0
sa(dp2675
g5
g815
sg10
F1
sg11
F0
sa(dp2676
g5
g1303
sg10
F1
sg11
F0
sas(F-0.28999999999999998
F-0.01
tp2677
(lp2678
(dp2679
g133
g6
(g8
S'\xe0Q\xb8\x1e\x85\xeb\xe1\xbf'
tRp2680
sg135
F244
sg136
F0
sa(dp2681
g5
g615
sg10
F1
sg11
F0
sa(dp2682
g5
g6
(g8
S'\xb6\x1e\x85\xebQ\xb8\xf6\xbf'
tRp2683
sg10
F1
sg11
F0
sas(F-0.34999999999999998
F-0.02
tp2684
(lp2685
(dp2686
g5
g554
sg10
F2
sg11
F0
sas(F0.32000000000000001
F0.20000000000000001
tp2687
(lp2688
(dp2689
g30
g6
(g8
S'\x00\x1f\x85\xebQ\xb8\xce?'
tRp2690
sg32
F4
sg33
F-0.61140000000000005
sa(dp2691
g30
g603
sg32
F10
sg33
F-0.60070000000000001
sa(dp2692
g30
g97
sg32
F2
sg33
F-0.61499999999999999
sa(dp2693
g41
g6
(g8
S'(33333\xe3\xbf'
tRp2694
sg43
F10
sg44
F-0.57850000000000001
sas(F0.40000000000000002
F-0.01
tp2695
(lp2696
(dp2697
g5
g925
sg10
F199
sg11
F0
sa(dp2698
g5
g1519
sg10
F1
sg11
F0
sa(dp2699
g5
g565
sg10
F1
sg11
F0
sas(F0.72999999999999998
F0
tp2700
(lp2701
(dp2702
g5
g6
(g8
S'\xa8z\x14\xaeG\xe1\xca\xbf'
tRp2703
sg10
F334
sg11
F0
sa(dp2704
g5
g558
sg10
F1
sg11
F0
sa(dp2705
g5
g1813
sg10
F1
sg11
F0
sa(dp2706
g5
g17
sg10
F1
sg11
F0
sas(F-0.16
F-0.02
tp2707
(lp2708
(dp2709
g5
g1094
sg10
F12
sg11
F0
sa(dp2710
g5
g975
sg10
F1
sg11
F0
sas(F-0.65000000000000002
F0
tp2711
(lp2712
(dp2713
g5
g261
sg10
F7
sg11
F0
sa(dp2714
g5
g249
sg10
F1
sg11
F0
sas(F-0.050000000000000003
F0
tp2715
(lp2716
(dp2717
g21
g719
sg23
F1
sg24
F0.20880000000000001
sa(dp2718
g21
g1492
sg23
F1279
sg24
F0.47239999999999999
sa(dp2719
g21
g6
(g8
S'\xce\x1e\x85\xebQ\xb8\xe6?'
tRp2720
sg23
F1
sg24
F0.2697
sa(dp2721
g30
g803
sg32
F779
sg33
F0.4793
sa(dp2722
g30
g6
(g8
S'^fffff\xee\xbf'
tRp2723
sg32
F1
sg33
F0.079600000000000004
sa(dp2724
g30
g39
sg32
F1
sg33
F0.1527
sa(dp2725
g30
g681
sg32
F1
sg33
F0.078399999999999997
sa(dp2726
g30
g6
(g8
S'%\\\x8f\xc2\xf5(\xf0\xbf'
tRp2727
sg32
F1
sg33
F0.080100000000000005
sa(dp2728
g30
g6
(g8
S'\xb0\x99\x99\x99\x99\x99\xe9?'
tRp2729
sg32
F1
sg33
F0.086099999999999996
sa(dp2730
g30
g35
sg32
F625
sg33
F0.48499999999999999
sa(dp2731
g30
g671
sg32
F409
sg33
F0.60060000000000002
sa(dp2732
g41
g1005
sg43
F471
sg44
F0.47460000000000002
sa(dp2733
g5
g933
sg10
F1
sg11
F0.01
sas(F0.40999999999999998
F-0.02
tp2734
(lp2735
(dp2736
g5
g317
sg10
F51
sg11
F0
sa(dp2737
g5
g1519
sg10
F1
sg11
F0
sa(dp2738
g5
g413
sg10
F1
sg11
F0
sa(dp2739
g5
g411
sg10
F1
sg11
F0
sas(F0.48999999999999999
F0.01
tp2740
(lp2741
(dp2742
g5
g863
sg10
F187
sg11
F0
sa(dp2743
g5
g502
sg10
F1
sg11
F0
sa(dp2744
g5
g867
sg10
F1
sg11
F0
sas(F-0.57999999999999996
F0
tp2745
(lp2746
(dp2747
g5
g1529
sg10
F18
sg11
F0
sa(dp2748
g5
g1527
sg10
F1
sg11
F0
sas(F0.29999999999999999
F-0.01
tp2749
(lp2750
(dp2751
g21
g6
(g8
S'\xec\xa3p=\n\xd7\xe3?'
tRp2752
sg23
F793
sg24
F-0.0025000000000000001
sa(dp2753
g30
g1379
sg32
F326
sg33
F-0.0137
sa(dp2754
g30
g1740
sg32
F353
sg33
F-0.011900000000000001
sa(dp2755
g41
g6
(g8
S'\x80\x1e\x85\xebQ\xb8\xce\xbf'
tRp2756
sg43
F43
sg44
F-0.041500000000000002
sa(dp2757
g5
g1535
sg10
F241
sg11
F-0.0016000000000000001
sa(dp2758
g5
g6
(g8
S'\xc9\xcc\xcc\xcc\xcc\xcc\xf0\xbf'
tRp2759
sg10
F22
sg11
F-0.0016000000000000001
sas(F0.91000000000000003
F0
tp2760
(lp2761
(dp2762
g5
g504
sg10
F726
sg11
F-0.0094999999999999998
sa(dp2763
g5
g87
sg10
F2
sg11
F-0.047699999999999999
sas(F-0.19
F0.02
tp2764
(lp2765
(dp2766
g5
g2011
sg10
F3
sg11
F0
sa(dp2767
g5
g83
sg10
F1
sg11
F0
sas(F0.37
F-0.029999999999999999
tp2768
(lp2769
(dp2770
g5
g744
sg10
F1
sg11
F0
sas(F-0.28000000000000003
F-0.02
tp2771
(lp2772
(dp2773
g5
g6
(g8
S'\xc0\xf5(\\\x8f\xc2\xf5\xbf'
tRp2774
sg10
F2
sg11
F0
sas(F-0.34999999999999998
F0.01
tp2775
(lp2776
(dp2777
g133
g6
(g8
S'\xb0\\\x8f\xc2\xf5(\xbc?'
tRp2778
sg135
F1
sg136
F-0.0407
sa(dp2779
g5
g1013
sg10
F171
sg11
F0
sa(dp2780
g5
g6
(g8
S'\xe8p=\n\xd7\xa3\xc0?'
tRp2781
sg10
F1
sg11
F0
sas(F0.92000000000000004
F1.0800000000000001
tp2782
(lp2783
(dp2784
g5
g144
sg10
F1
sg11
F-0.050000000000000003
sa(dp2785
g5
g17
sg10
F1
sg11
F-0.0911
sas(F0.67000000000000004
F-0.02
tp2786
(lp2787
(dp2788
g5
g1211
sg10
F36
sg11
F0
sa(dp2789
g5
g1216
sg10
F1
sg11
F0
sas(F0.35999999999999999
F0.01
tp2790
(lp2791
(dp2792
g5
g437
sg10
F178
sg11
F0
sa(dp2793
g5
g1009
sg10
F1
sg11
F0
sa(dp2794
g5
g1486
sg10
F1
sg11
F0
sas(F0.79000000000000004
F0
tp2795
(lp2796
(dp2797
g5
g375
sg10
F89
sg11
F0
sa(dp2798
g5
g6
(g8
S'\x90\xd6\xa3p=\n\xb7\xbf'
tRp2799
sg10
F1
sg11
F0
sa(dp2800
g5
g2370
sg10
F1
sg11
F0
sas(F0.59999999999999998
F0
tp2801
(lp2802
(dp2803
g5
g475
sg10
F1570
sg11
F0
sa(dp2804
g5
g393
sg10
F1
sg11
F0
sa(dp2805
g5
g17
sg10
F1
sg11
F0
sa(dp2806
g5
g473
sg10
F1
sg11
F0
sas(F0.01
F-0.01
tp2807
(lp2808
(dp2809
g21
g1130
sg23
F639
sg24
F0.81440000000000001
sa(dp2810
g21
g508
sg23
F122
sg24
F0.81720000000000004
sa(dp2811
g30
g1143
sg32
F61
sg33
F0.82079999999999997
sa(dp2812
g30
g529
sg32
F72
sg33
F0.82179999999999997
sa(dp2813
g41
g808
sg43
F31
sg44
F1
sa(dp2814
g5
g1146
sg10
F19
sg11
F0.82179999999999997
sas(F-0.19
F0
tp2815
(lp2816
(dp2817
g30
g6
(g8
S'\x1c\x85\xebQ\xb8\x1e\xf5\xbf'
tRp2818
sg32
F578
sg33
F0
sa(dp2819
g30
g63
sg32
F1
sg33
F0
sa(dp2820
g30
g6
(g8
S'\xae\x99\x99\x99\x99\x99\xe1?'
tRp2821
sg32
F1
sg33
F0
sa(dp2822
g41
g6
(g8
S'\x82\xebQ\xb8\x1e\x85\xf3\xbf'
tRp2823
sg43
F1
sg44
F0
sa(dp2824
g41
g6
(g8
S'\xf4\xcc\xcc\xcc\xcc\xcc\xdc?'
tRp2825
sg43
F1
sg44
F0
sa(dp2826
g5
g6
(g8
S'\xb1p=\n\xd7\xa3\xf4?'
tRp2827
sg10
F1
sg11
F0
sa(dp2828
g5
g261
sg10
F1
sg11
F0
sas(F0.040000000000000001
F-0.02
tp2829
(lp2830
(dp2831
g5
g865
sg10
F1
sg11
F0.24340000000000001
sa(dp2832
g5
g1013
sg10
F30
sg11
F0.94159999999999999
sa(dp2833
g5
g1193
sg10
F1
sg11
F0.025000000000000001
sa(dp2834
g5
g6
(g8
S'\xcb\xcc\xcc\xcc\xcc\xcc\xf8\xbf'
tRp2835
sg10
F1
sg11
F0.025000000000000001
sas(F0.52000000000000002
F-0.01
tp2836
(lp2837
(dp2838
g5
g1042
sg10
F271
sg11
F0
sa(dp2839
g5
g1640
sg10
F1
sg11
F0
sa(dp2840
g5
g1826
sg10
F1
sg11
F0
sa(dp2841
g5
g1116
sg10
F1
sg11
F0
sas(F-0.64000000000000001
F-0.01
tp2842
(lp2843
(dp2844
g5
g258
sg10
F1
sg11
F0
sas(F0.050000000000000003
F-0.02
tp2845
(lp2846
(dp2847
g5
g6
(g8
S'\\fffff\xe6\xbf'
tRp2848
sg10
F40
sg11
F0.92989999999999995
sa(dp2849
g5
g500
sg10
F1
sg11
F0.50409999999999999
sas(F0.92000000000000004
F0.81000000000000005
tp2850
(lp2851
(dp2852
g5
g6
(g8
S'\xd9\xcc\xcc\xcc\xcc\xcc\xf0?'
tRp2853
sg10
F3
sg11
F-0.22120000000000001
sa(dp2854
g5
g17
sg10
F1
sg11
F-0.17549999999999999
sa(dp2855
g5
g2113
sg10
F2
sg11
F-0.1391
sa(dp2856
g5
g1042
sg10
F2
sg11
F-0.14749999999999999
sas(F-0.46000000000000002
F0
tp2857
(lp2858
(dp2859
g133
g6
(g8
S'(\\\x8f\xc2\xf5(\xfc\xbf'
tRp2860
sg135
F2
sg136
F-0.042500000000000003
sa(dp2861
g5
g1933
sg10
F202
sg11
F-0.00089999999999999998
sa(dp2862
g5
g2799
sg10
F91
sg11
F-0.0014
sas(F0.58999999999999997
F-0.02
tp2863
(lp2864
(dp2865
g5
g387
sg10
F46
sg11
F0
sa(dp2866
g5
g389
sg10
F1
sg11
F0
sa(dp2867
g5
g391
sg10
F1
sg11
F0
sas(F0.81000000000000005
F0.01
tp2868
(lp2869
(dp2870
g5
g1459
sg10
F1
sg11
F0
sas(F0.089999999999999997
F0.01
tp2871
(lp2872
(dp2873
g21
g6
(g8
S'\xc0\x14\xaeG\xe1z\xc4?'
tRp2874
sg23
F652
sg24
F0.0038999999999999998
sa(dp2875
g30
g2655
sg32
F1
sg33
F0
sa(dp2876
g30
g6
(g8
S'}=\n\xd7\xa3p\xf1?'
tRp2877
sg32
F1
sg33
F0
sa(dp2878
g41
g1265
sg43
F1
sg44
F0
sa(dp2879
g41
g2657
sg43
F1
sg44
F0
sa(dp2880
g5
g1601
sg10
F46
sg11
F0.0030999999999999999
sas(F0.81999999999999995
F-0.01
tp2881
(lp2882
(dp2883
g5
g563
sg10
F247
sg11
F0
sa(dp2884
g5
g565
sg10
F1
sg11
F0
sa(dp2885
g5
g2471
sg10
F1
sg11
F0
sa(dp2886
g5
g744
sg10
F1
sg11
F0
sas(F-0.42999999999999999
F-0.02
tp2887
(lp2888
(dp2889
g5
g1372
sg10
F1
sg11
F0
sas(F0.56999999999999995
F-0.02
tp2890
(lp2891
(dp2892
g5
g984
sg10
F53
sg11
F0
sa(dp2893
g5
g981
sg10
F1
sg11
F0
sa(dp2894
g5
g6
(g8
S'\xea(\\\x8f\xc2\xf5\xe0\xbf'
tRp2895
sg10
F1
sg11
F0
sas(F-0.47999999999999998
F0
tp2896
(lp2897
(dp2898
g133
g6
(g8
S'\xcc\xcc\xcc\xcc\xcc\xcc\xfc\xbf'
tRp2899
sg135
F3
sg136
F-0.062100000000000002
sa(dp2900
g5
g1499
sg10
F11
sg11
F-0.0057000000000000002
sa(dp2901
g5
g6
(g8
S'hp=\n\xd7\xa3\xc0\xbf'
tRp2902
sg10
F108
sg11
F-0.001
sas(F-0.57999999999999996
F0.01
tp2903
(lp2904
(dp2905
g5
g1285
sg10
F1
sg11
F0
sa(dp2906
g5
g2192
sg10
F1
sg11
F0
sas(F-0.14000000000000001
F0.02
tp2907
(lp2908
(dp2909
g5
g917
sg10
F1
sg11
F0
sas(F-0.28000000000000003
F0.01
tp2910
(lp2911
(dp2912
g133
g6
(g8
S'\x84\xc2\xf5(\\\x8f\xe2\xbf'
tRp2913
sg135
F235
sg136
F0
sa(dp2914
g5
g1312
sg10
F1
sg11
F0
sa(dp2915
g5
g617
sg10
F1
sg11
F0
sas(F0.34999999999999998
F-0.02
tp2916
(lp2917
(dp2918
g5
g371
sg10
F48
sg11
F0
sa(dp2919
g5
g375
sg10
F1
sg11
F0
sa(dp2920
g5
g373
sg10
F1
sg11
F0
sas(F0.11
F0.01
tp2921
(lp2922
(dp2923
g30
g1968
sg32
F761
sg33
F0.00050000000000000001
sa(dp2924
g30
g6
(g8
S'sfffff\xf2?'
tRp2925
sg32
F1
sg33
F0
sa(dp2926
g30
g6
(g8
S'!\xaeG\xe1z\x14\xf2?'
tRp2927
sg32
F1
sg33
F0
sa(dp2928
g41
g2036
sg43
F1
sg44
F0.00029999999999999997
sa(dp2929
g5
g2853
sg10
F1
sg11
F0
sas(F0.44
F-0.02
tp2930
(lp2931
(dp2932
g5
g364
sg10
F35
sg11
F0
sa(dp2933
g5
g901
sg10
F1
sg11
F0
sas(F-0.089999999999999997
F0.02
tp2934
(lp2935
(dp2936
g5
g877
sg10
F5
sg11
F0.0032000000000000002
sas(F0.20000000000000001
F-0.01
tp2937
(lp2938
(dp2939
g21
g212
sg23
F1525
sg24
F0
sa(dp2940
g30
g157
sg32
F1
sg33
F0
sa(dp2941
g41
g302
sg43
F1
sg44
F0
sa(dp2942
g41
g1275
sg43
F1
sg44
F0
sa(dp2943
g5
g225
sg10
F1
sg11
F0
sas(F0.01
F0.02
tp2944
(lp2945
(dp2946
g5
g925
sg10
F3
sg11
F1
sas(F0.64000000000000001
F0.01
tp2947
(lp2948
(dp2949
g5
g1031
sg10
F226
sg11
F0
sas(F0.87
F-0.01
tp2950
(lp2951
(dp2952
g5
g364
sg10
F225
sg11
F-0.050000000000000003
sa(dp2953
g5
g1179
sg10
F27
sg11
F0
sa(dp2954
g5
g1633
sg10
F1
sg11
F0
sas(F-0.23999999999999999
F-0.02
tp2955
(lp2956
(dp2957
g5
g1444
sg10
F5
sg11
F0
sas(F0.32000000000000001
F0.14000000000000001
tp2958
(lp2959
(dp2960
g30
g6
(g8
S'0\xd7\xa3p=\n\xd7?'
tRp2961
sg32
F14
sg33
F-0.97209999999999996
sa(dp2962
g30
g97
sg32
F13
sg33
F-1.0399
sa(dp2963
g41
g697
sg43
F12
sg44
F-0.70040000000000002
sas(F0.87
F0
tp2964
(lp2965
(dp2966
g5
g1633
sg10
F228
sg11
F-0.045100000000000001
sa(dp2967
g5
g6
(g8
S'\xe6\xa3p=\n\xd7\xfb?'
tRp2968
sg10
F31
sg11
F0
sas(F0.34000000000000002
F0.02
tp2969
(lp2970
(dp2971
g5
g622
sg10
F1
sg11
F0
sas(F0.92000000000000004
F0.72999999999999998
tp2972
(lp2973
(dp2974
g5
g387
sg10
F3
sg11
F-0.2298
sa(dp2975
g5
g17
sg10
F1
sg11
F-0.17419999999999999
sas(F0.14000000000000001
F-0.01
tp2976
(lp2977
(dp2978
g21
g6
(g8
S'X33333\xd3?'
tRp2979
sg23
F1188
sg24
F0.0001
sa(dp2980
g21
g6
(g8
S'\x98p=\n\xd7\xa3\xe0\xbf'
tRp2981
sg23
F1
sg24
F0
sa(dp2982
g30
g2434
sg32
F1
sg33
F0
sa(dp2983
g30
g1545
sg32
F1
sg33
F0
sa(dp2984
g41
g1549
sg43
F1
sg44
F0
sa(dp2985
g41
g613
sg43
F1
sg44
F0
sa(dp2986
g5
g6
(g8
S'\xe9Q\xb8\x1e\x85\xeb\xf5\xbf'
tRp2987
sg10
F1
sg11
F0
sa(dp2988
g5
g261
sg10
F1
sg11
F0
sas(F0.82999999999999996
F-0.01
tp2989
(lp2990
(dp2991
g5
g168
sg10
F241
sg11
F0
sa(dp2992
g5
g6
(g8
S'\xf0z\x14\xaeG\xe1\xfa?'
tRp2993
sg10
F1
sg11
F0
sa(dp2994
g5
g565
sg10
F1
sg11
F0
sas(F0.17999999999999999
F0
tp2995
(lp2996
(dp2997
g21
g6
(g8
S'X=\n\xd7\xa3p\xdd\xbf'
tRp2998
sg23
F8129
sg24
F0
sa(dp2999
g21
g6
(g8
S'0\xd7\xa3p=\n\xd7?'
tRp3000
sg23
F1
sg24
F0
sa(dp3001
g30
g69
sg32
F1
sg33
F0
sa(dp3002
g30
g196
sg32
F1
sg33
F0
sa(dp3003
g30
g6
(g8
S'\x8e\x99\x99\x99\x99\x99\xe1\xbf'
tRp3004
sg32
F1
sg33
F0
sa(dp3005
g30
g695
sg32
F1
sg33
F0
sa(dp3006
g30
g2294
sg32
F1
sg33
F0
sa(dp3007
g41
g2296
sg43
F1
sg44
F0
sa(dp3008
g5
g6
(g8
S'\xf3(\\\x8f\xc2\xf5\xf4\xbf'
tRp3009
sg10
F1
sg11
F0
sas(F-0.11
F-0.02
tp3010
(lp3011
(dp3012
g133
g6
(g8
S'\xd0\xd6\xa3p=\n\xc7\xbf'
tRp3013
sg135
F15
sg136
F0.0001
sa(dp3014
g5
g2396
sg10
F1
sg11
F0
sas(F0.32000000000000001
F0
tp3015
(lp3016
(dp3017
g21
g2333
sg23
F2656
sg24
F-1.7911999999999999
sa(dp3018
g21
g423
sg23
F4799
sg24
F-1.6460999999999999
sa(dp3019
g30
g6
(g8
S'-\x85\xebQ\xb8\x1e\xf9?'
tRp3020
sg32
F7164
sg33
F-1.7338
sa(dp3021
g41
g6
(g8
S'\x93\xebQ\xb8\x1e\x85\xf7?'
tRp3022
sg43
F463
sg44
F-1.7342
sa(dp3023
g5
g431
sg10
F229
sg11
F-1.7367999999999999
sa(dp3024
g5
g429
sg10
F215
sg11
F-1.7338
sas(F0.79000000000000004
F-0.01
tp3025
(lp3026
(dp3027
g5
g1459
sg10
F250
sg11
F0
sa(dp3028
g5
g1451
sg10
F1
sg11
F0
sa(dp3029
g5
g375
sg10
F1
sg11
F0
sas(F0.080000000000000002
F0
tp3030
(lp3031
(dp3032
g21
g6
(g8
S'\x14\x85\xebQ\xb8\x1e\xe5\xbf'
tRp3033
sg23
F7
sg24
F0
sa(dp3034
g21
g2874
sg23
F4366
sg24
F0.019599999999999999
sa(dp3035
g21
g6
(g8
S'"\xd7\xa3p=\n\xef?'
tRp3036
sg23
F1
sg24
F0
sa(dp3037
g30
g1511
sg32
F482
sg33
F0.016899999999999998
sa(dp3038
g30
g601
sg32
F1
sg33
F0
sa(dp3039
g30
g6
(g8
S'\xf6\xff\xff\xff\xff\xff\xe7\xbf'
tRp3040
sg32
F1
sg33
F0
sa(dp3041
g30
g1187
sg32
F367
sg33
F0.0015
sa(dp3042
g30
g2877
sg32
F1
sg33
F0.00020000000000000001
sa(dp3043
g41
g708
sg43
F1
sg44
F0.0053
sa(dp3044
g5
g6
(g8
S"'\\\x8f\xc2\xf5(\xf8\xbf"
tRp3045
sg10
F338
sg11
F0.0167
sa(dp3046
g5
g2081
sg10
F1
sg11
F0.00069999999999999999
sas(F-0.01
F-0.02
tp3047
(lp3048
(dp3049
g5
g317
sg10
F4
sg11
F0.90410000000000001
sa(dp3050
g5
g1372
sg10
F28
sg11
F1
sas(F-0.23000000000000001
F0
tp3051
(lp3052
(dp3053
g30
g6
(g8
S'dfffff\xf6\xbf'
tRp3054
sg32
F505
sg33
F0
sa(dp3055
g30
g310
sg32
F1
sg33
F0
sa(dp3056
g5
g249
sg10
F1
sg11
F0
sa(dp3057
g5
g313
sg10
F1
sg11
F0
sas(F0.68999999999999995
F0.01
tp3058
(lp3059
(dp3060
g5
g186
sg10
F160
sg11
F0
sa(dp3061
g5
g17
sg10
F1
sg11
F0
sas(F-0.34999999999999998
F0
tp3062
(lp3063
(dp3064
g5
g6
(g8
S'\xa2p=\n\xd7\xa3\xf8\xbf'
tRp3065
sg10
F809
sg11
F-0
sa(dp3066
g5
g2848
sg10
F1
sg11
F-0.00089999999999999998
sa(dp3067
g5
g2781
sg10
F1
sg11
F0
sas(F0.059999999999999998
F0
tp3068
(lp3069
(dp3070
g21
g6
(g8
S'\\fffff\xe6\xbf'
tRp3071
sg23
F1
sg24
F0.0091999999999999998
sa(dp3072
g21
g2171
sg23
F2909
sg24
F0.077299999999999994
sa(dp3073
g21
g6
(g8
S'\xda\xf5(\\\x8f\xc2\xed?'
tRp3074
sg23
F1
sg24
F0.00050000000000000001
sa(dp3075
g30
g1719
sg32
F766
sg33
F0.077700000000000005
sa(dp3076
g30
g823
sg32
F1
sg33
F0.017299999999999999
sa(dp3077
g30
g6
(g8
S'>\xe1z\x14\xaeG\xe9\xbf'
tRp3078
sg32
F1
sg33
F0.018800000000000001
sa(dp3079
g30
g513
sg32
F512
sg33
F0.077100000000000002
sa(dp3080
g30
g1776
sg32
F293
sg33
F0.077600000000000002
sa(dp3081
g41
g1779
sg43
F375
sg44
F0.029600000000000001
sa(dp3082
g5
g2835
sg10
F266
sg11
F0.086400000000000005
sas(F0.92000000000000004
F0.39000000000000001
tp3083
(lp3084
(dp3085
g5
g1826
sg10
F6
sg11
F-0.35010000000000002
sa(dp3086
g5
g17
sg10
F6
sg11
F-0.41499999999999998
sas(F-0.45000000000000001
F-0.02
tp3087
(lp3088
(dp3089
g5
g6
(g8
S'233333\xfb\xbf'
tRp3090
sg10
F1
sg11
F-0
sas(F-0.56000000000000005
F0
tp3091
(lp3092
(dp3093
g5
g6
(g8
S'\\\x8f\xc2\xf5(\\\xff\xbf'
tRp3094
sg10
F40
sg11
F0
sa(dp3095
g5
g1213
sg10
F1
sg11
F0
sa(dp3096
g5
g1094
sg10
F1
sg11
F0
sas(F0.050000000000000003
F-0.01
tp3097
(lp3098
(dp3099
g21
g2171
sg23
F832
sg24
F0.47110000000000002
sa(dp3100
g30
g519
sg32
F1
sg33
F0.096699999999999994
sa(dp3101
g30
g513
sg32
F1
sg33
F0.1641
sa(dp3102
g41
g2020
sg43
F1
sg44
F0.20610000000000001
sa(dp3103
g41
g1733
sg43
F12
sg44
F0.46860000000000002
sa(dp3104
g5
g2835
sg10
F13
sg11
F0.67620000000000002
sas(F0.69999999999999996
F0.01
tp3105
(lp3106
(dp3107
g5
g1216
sg10
F138
sg11
F0
sas(F-0.14999999999999999
F0
tp3108
(lp3109
(dp3110
g21
g6
(g8
S'\xe8Q\xb8\x1e\x85\xeb\xf1\xbf'
tRp3111
sg23
F1113
sg24
F0
sa(dp3112
g21
g381
sg23
F1
sg24
F0
sa(dp3113
g30
g6
(g8
S'\xd4\xa3p=\n\xd7\xf3\xbf'
tRp3114
sg32
F1
sg33
F0
sa(dp3115
g30
g6
(g8
S'>\\\x8f\xc2\xf5(\xe4?'
tRp3116
sg32
F1
sg33
F0
sa(dp3117
g41
g6
(g8
S':\n\xd7\xa3p=\xf2\xbf'
tRp3118
sg43
F1
sg44
F0
sa(dp3119
g41
g6
(g8
S'\n)\\\x8f\xc2\xf5\xe0?'
tRp3120
sg43
F1
sg44
F0
sa(dp3121
g5
g6
(g8
S'\x85\xebQ\xb8\x1e\x85\xff\xbf'
tRp3122
sg10
F1
sg11
F0
sa(dp3123
g5
g6
(g8
S'\xf9Q\xb8\x1e\x85\xeb\xf5?'
tRp3124
sg10
F1
sg11
F0
sas(F0.42999999999999999
F0.01
tp3125
(lp3126
(dp3127
g5
g168
sg10
F165
sg11
F0
sa(dp3128
g5
g1907
sg10
F1
sg11
F0
sas(F-0.17000000000000001
F-0.02
tp3129
(lp3130
(dp3131
g5
g6
(g8
S':\n\xd7\xa3p=\xf2\xbf'
tRp3132
sg10
F14
sg11
F0
sa(dp3133
g5
g2236
sg10
F1
sg11
F0
sas(F-0.19
F0.01
tp3134
(lp3135
(dp3136
g30
g65
sg32
F297
sg33
F0
sa(dp3137
g5
g6
(g8
S'\xac\xebQ\xb8\x1e\x85\xdb?'
tRp3138
sg10
F1
sg11
F0
sa(dp3139
g5
g164
sg10
F1
sg11
F0
sas(F-0.16
F0.02
tp3140
(lp3141
(dp3142
g5
g6
(g8
S'\xf0\xd6\xa3p=\n\xd7\xbf'
tRp3143
sg10
F2
sg11
F0
sas(F0.089999999999999997
F0.02
tp3144
(lp3145
(dp3146
g5
g500
sg10
F1
sg11
F0
sas(F0.37
F0.02
tp3147
(lp3148
(dp3149
g5
g437
sg10
F1
sg11
F0
sas(F-0.029999999999999999
F-0.02
tp3150
(lp3151
(dp3152
g5
g925
sg10
F1
sg11
F0.80679999999999996
sa(dp3153
g5
g343
sg10
F22
sg11
F1
sas(F0.32000000000000001
F0.48999999999999999
tp3154
(lp3155
(dp3156
g30
g6
(g8
S'\xf6z\x14\xaeG\xe1\xe2?'
tRp3157
sg32
F2
sg33
F-0.13700000000000001
sas(F-0.56000000000000005
F0.01
tp3158
(lp3159
(dp3160
g5
g3132
sg10
F3
sg11
F0
sas(F0.11
F-0.01
tp3161
(lp3162
(dp3163
g21
g594
sg23
F763
sg24
F0.0016000000000000001
sa(dp3164
g30
g601
sg32
F1
sg33
F0
sa(dp3165
g30
g1719
sg32
F1
sg33
F0
sa(dp3166
g41
g2694
sg43
F250
sg44
F0.0047999999999999996
sa(dp3167
g41
g6
(g8
S'\xcc\xa3p=\n\xd7\xe3\xbf'
tRp3168
sg43
F1
sg44
F0.00020000000000000001
sa(dp3169
g5
g607
sg10
F1
sg11
F0.0030000000000000001
sas(F0.58999999999999997
F0.02
tp3170
(lp3171
(dp3172
g5
g2044
sg10
F1
sg11
F0
sas(F0.22
F0.01
tp3173
(lp3174
(dp3175
g30
g1297
sg32
F1221
sg33
F0
sa(dp3176
g41
g1715
sg43
F1
sg44
F0
sa(dp3177
g41
g223
sg43
F1
sg44
F0
sas(F0.66000000000000003
F-0.01
tp3178
(lp3179
(dp3180
g5
g353
sg10
F356
sg11
F0
sa(dp3181
g5
g6
(g8
S'\x04\x85\xebQ\xb8\x1e\xd5\xbf'
tRp3182
sg10
F1
sg11
F0
sa(dp3183
g5
g351
sg10
F1
sg11
F0
sa(dp3184
g5
g1035
sg10
F1
sg11
F0
sas(F0.31
F0
tp3185
(lp3186
(dp3187
g21
g2338
sg23
F1371
sg24
F-0.51139999999999997
sa(dp3188
g21
g2752
sg23
F2909
sg24
F-0.18970000000000001
sa(dp3189
g30
g657
sg32
F4227
sg33
F-0.24990000000000001
sa(dp3190
g30
g6
(g8
S'\x80\x1e\x85\xebQ\xb8\xce\xbf'
tRp3191
sg32
F720
sg33
F-0.49480000000000002
sa(dp3192
g30
g6
(g8
S't\xc2\xf5(\\\x8f\xd2\xbf'
tRp3193
sg32
F196
sg33
F-0.50670000000000004
sa(dp3194
g30
g425
sg32
F1316
sg33
F-0.49299999999999999
sa(dp3195
g30
g125
sg32
F198
sg33
F-0.49490000000000001
sa(dp3196
g41
g127
sg43
F570
sg44
F-0.2462
sa(dp3197
g5
g2759
sg10
F106
sg11
F-0.24160000000000001
sas(F0.55000000000000004
F0
tp3198
(lp3199
(dp3200
g5
g6
(g8
S'2\n\xd7\xa3p=\xe2\xbf'
tRp3201
sg10
F1204
sg11
F0
sa(dp3202
g5
g937
sg10
F1
sg11
F0
sa(dp3203
g5
g1638
sg10
F1
sg11
F0
sa(dp3204
g5
g6
(g8
S'\xf1z\x14\xaeG\xe1\xfe?'
tRp3205
sg10
F1
sg11
F0
sas(F0.92000000000000004
F0.41999999999999998
tp3206
(lp3207
(dp3208
g5
g53
sg10
F6
sg11
F-0.38229999999999997
sas(F0.26000000000000001
F0
tp3209
(lp3210
(dp3211
g21
g381
sg23
F10972
sg24
F0
sa(dp3212
g21
g945
sg23
F1
sg24
F0
sa(dp3213
g30
g425
sg32
F1
sg33
F0
sa(dp3214
g30
g1740
sg32
F1
sg33
F0
sa(dp3215
g30
g6
(g8
S'\xdc(\\\x8f\xc2\xf5\xd8\xbf'
tRp3216
sg32
F1
sg33
F0
sa(dp3217
g30
g214
sg32
F1
sg33
F0
sa(dp3218
g30
g1921
sg32
F1
sg33
F0
sa(dp3219
g41
g1923
sg43
F1
sg44
F0
sa(dp3220
g5
g950
sg10
F1
sg11
F0
sa(dp3221
g5
g17
sg10
F1
sg11
F0
sas(F-0.35999999999999999
F-0.01
tp3222
(lp3223
(dp3224
g133
g6
(g8
S'\xa2p=\n\xd7\xa3\xf8\xbf'
tRp3225
sg135
F1
sg136
F-0.016199999999999999
sa(dp3226
g5
g2848
sg10
F12
sg11
F-0.00089999999999999998
sa(dp3227
g5
g6
(g8
S'\xf4(\\\x8f\xc2\xf5\xf8\xbf'
tRp3228
sg10
F159
sg11
F0
sas(F0.56999999999999995
F0
tp3229
(lp3230
(dp3231
g5
g2895
sg10
F1427
sg11
F0
sa(dp3232
g5
g465
sg10
F1
sg11
F0
sa(dp3233
g5
g2044
sg10
F1
sg11
F0
sa(dp3234
g5
g2042
sg10
F1
sg11
F0
sas(F0.37
F-0.02
tp3235
(lp3236
(dp3237
g5
g929
sg10
F52
sg11
F0
sa(dp3238
g5
g840
sg10
F1
sg11
F0
sa(dp3239
g5
g6
(g8
S'r\x14\xaeG\xe1z\xec\xbf'
tRp3240
sg10
F1
sg11
F0
sas(F0.92000000000000004
F1.04
tp3241
(lp3242
(dp3243
g5
g1319
sg10
F1
sg11
F-0.098799999999999999
sa(dp3244
g5
g17
sg10
F1
sg11
F-0.17580000000000001
sas(F-0.16
F0
tp3245
(lp3246
(dp3247
g30
g6
(g8
S'&\\\x8f\xc2\xf5(\xf4\xbf'
tRp3248
sg32
F956
sg33
F0
sa(dp3249
g30
g425
sg32
F1
sg33
F0
sa(dp3250
g30
g6
(g8
S'\x9a\xebQ\xb8\x1e\x85\xe3?'
tRp3251
sg32
F1
sg33
F0
sa(dp3252
g41
g6
(g8
S'\x8c\xc2\xf5(\\\x8f\xf2\xbf'
tRp3253
sg43
F1
sg44
F0
sa(dp3254
g41
g6
(g8
S'f\xb8\x1e\x85\xebQ\xe0?'
tRp3255
sg43
F1
sg44
F0
sa(dp3256
g5
g1529
sg10
F1
sg11
F0
sas(F-0.34000000000000002
F-0.01
tp3257
(lp3258
(dp3259
g133
g6
(g8
S'\x14\x85\xebQ\xb8\x1e\xe5\xbf'
tRp3260
sg135
F1
sg136
F-0.00089999999999999998
sa(dp3261
g5
g554
sg10
F196
sg11
F-0
sas(F0.62
F-0.01
tp3262
(lp3263
(dp3264
g5
g1029
sg10
F345
sg11
F0
sa(dp3265
g5
g1031
sg10
F1
sg11
F0
sa(dp3266
g5
g1446
sg10
F1
sg11
F0
sa(dp3267
g5
g1027
sg10
F1
sg11
F0
sas(F0.92000000000000004
F1.1100000000000001
tp3268
(lp3269
(dp3270
g5
g1351
sg10
F1
sg11
F-0.050000000000000003
sa(dp3271
g5
g17
sg10
F1
sg11
F-0.090899999999999995
sas(F0.40000000000000002
F0.01
tp3272
(lp3273
(dp3274
g5
g840
sg10
F166
sg11
F0
sa(dp3275
g5
g742
sg10
F1
sg11
F0
sa(dp3276
g5
g6
(g8
S'\xd1\xf5(\\\x8f\xc2\xf9?'
tRp3277
sg10
F1
sg11
F0
sas(F0.78000000000000003
F0
tp3278
(lp3279
(dp3280
g5
g542
sg10
F62
sg11
F0
sa(dp3281
g5
g245
sg10
F1
sg11
F0
sa(dp3282
g5
g544
sg10
F1
sg11
F0
sas(F-0.02
F-0.02
tp3283
(lp3284
(dp3285
g5
g415
sg10
F8
sg11
F0.96940000000000004
sa(dp3286
g5
g2208
sg10
F23
sg11
F0.96879999999999999
sas(F0.39000000000000001
F-0.02
tp3287
(lp3288
(dp3289
g5
g1519
sg10
F48
sg11
F0
sa(dp3290
g5
g565
sg10
F1
sg11
F0
sa(dp3291
g5
g925
sg10
F1
sg11
F0
sas(F-0.60999999999999999
F0.01
tp3292
(lp3293
(dp3294
g5
g1207
sg10
F2
sg11
F0
sas(F-0.070000000000000007
F-0.01
tp3295
(lp3296
(dp3297
g21
g1001
sg23
F591
sg24
F0.0177
sa(dp3298
g30
g1067
sg32
F1
sg33
F0.00020000000000000001
sa(dp3299
g41
g1070
sg43
F1
sg44
F0.0040000000000000001
sa(dp3300
g41
g1856
sg43
F53
sg44
F0.0089999999999999993
sa(dp3301
g5
g6
(g8
S'\xa3p=\n\xd7\xa3\xfc\xbf'
tRp3302
sg10
F1
sg11
F0.0054000000000000003
sas(F-0.35999999999999999
F0.02
tp3303
(lp3304
(dp3305
g5
g642
sg10
F1
sg11
F-0
sas(F0.92000000000000004
F0.67000000000000004
tp3306
(lp3307
(dp3308
g5
g353
sg10
F4
sg11
F-0.2288
sa(dp3309
g5
g17
sg10
F1
sg11
F-0.17460000000000001
sas(F0.84999999999999998
F0
tp3310
(lp3311
(dp3312
g5
g413
sg10
F198
sg11
F0
sa(dp3313
g5
g1726
sg10
F1
sg11
F0
sa(dp3314
g5
g2348
sg10
F1
sg11
F0
sas(F0.60999999999999999
F0.01
tp3315
(lp3316
(dp3317
g5
g473
sg10
F220
sg11
F0
sa(dp3318
g5
g17
sg10
F1
sg11
F0
sas(F0.92000000000000004
F0.81999999999999995
tp3319
(lp3320
(dp3321
g5
g1116
sg10
F4
sg11
F-0.31530000000000002
sa(dp3322
g5
g17
sg10
F2
sg11
F-0.25719999999999998
sas(F0.12
F-0.01
tp3323
(lp3324
(dp3325
g21
g1505
sg23
F1071
sg24
F0.0018
sa(dp3326
g21
g1503
sg23
F1
sg24
F0
sa(dp3327
g30
g1511
sg32
F1
sg33
F0
sa(dp3328
g30
g601
sg32
F1
sg33
F0
sa(dp3329
g41
g2436
sg43
F6
sg44
F0.0019
sa(dp3330
g41
g2694
sg43
F1
sg44
F0.00020000000000000001
sa(dp3331
g5
g941
sg10
F1
sg11
F0.00050000000000000001
sas(F0.32000000000000001
F0.27000000000000002
tp3332
(lp3333
(dp3334
g30
g6
(g8
S' \x9a\x99\x99\x99\x99\xb9?'
tRp3335
sg32
F12
sg33
F-0.7944
sa(dp3336
g30
g97
sg32
F3
sg33
F-0.77890000000000004
sas(F0.080000000000000002
F0.01
tp3337
(lp3338
(dp3339
g21
g6
(g8
S'0R\xb8\x1e\x85\xeb\xc1?'
tRp3340
sg23
F598
sg24
F0.0064000000000000003
sa(dp3341
g30
g2173
sg32
F1
sg33
F0.0001
sa(dp3342
g30
g2877
sg32
F1
sg33
F0
sa(dp3343
g41
g708
sg43
F1
sg44
F0.00050000000000000001
sa(dp3344
g41
g2176
sg43
F88
sg44
F0.0068999999999999999
sas(F0.26000000000000001
F-0.02
tp3345
(lp3346
(dp3347
g5
g1437
sg10
F58
sg11
F0
sa(dp3348
g5
g975
sg10
F1
sg11
F0
sa(dp3349
g5
g973
sg10
F1
sg11
F0
sas(F0.67000000000000004
F0
tp3350
(lp3351
(dp3352
g5
g353
sg10
F1572
sg11
F0
sa(dp3353
g5
g3182
sg10
F1
sg11
F0
sa(dp3354
g5
g351
sg10
F1
sg11
F0
sa(dp3355
g5
g17
sg10
F1
sg11
F0
sas(F0.5
F0
tp3356
(lp3357
(dp3358
g5
g55
sg10
F1079
sg11
F0
sa(dp3359
g5
g2081
sg10
F1
sg11
F0
sa(dp3360
g5
g53
sg10
F1
sg11
F0
sa(dp3361
g5
g15
sg10
F1
sg11
F0
sas(F-0.13
F-0.01
tp3362
(lp3363
(dp3364
g21
g753
sg23
F433
sg24
F0
sa(dp3365
g30
g757
sg32
F1
sg33
F0
sa(dp3366
g5
g117
sg10
F1
sg11
F0
sa(dp3367
g5
g765
sg10
F1
sg11
F0
sas(F0.25
F-0.02
tp3368
(lp3369
(dp3370
g5
g2236
sg10
F40
sg11
F0
sa(dp3371
g5
g1211
sg10
F1
sg11
F0
sa(dp3372
g5
g1104
sg10
F1
sg11
F0
sas(F0.32000000000000001
F0.14999999999999999
tp3373
(lp3374
(dp3375
g30
g2291
sg32
F12
sg33
F-0.85009999999999997
sa(dp3376
g30
g97
sg32
F10
sg33
F-0.97209999999999996
sa(dp3377
g41
g492
sg43
F13
sg44
F-0.71309999999999996
sas(F-0.44
F0.02
tp3378
(lp3379
(dp3380
g5
g1933
sg10
F1
sg11
F0
sa(dp3381
g5
g649
sg10
F1
sg11
F-0
sas(F0.65000000000000002
F0
tp3382
(lp3383
(dp3384
g5
g6
(g8
S'\x94G\xe1z\x14\xae\xd7\xbf'
tRp3385
sg10
F1595
sg11
F0
sa(dp3386
g5
g2195
sg10
F1
sg11
F0
sa(dp3387
g5
g17
sg10
F1
sg11
F0
sa(dp3388
g5
g2092
sg10
F1
sg11
F0
sas(F-0.17999999999999999
F0
tp3389
(lp3390
(dp3391
g30
g1939
sg32
F711
sg33
F0
sa(dp3392
g30
g1290
sg32
F1
sg33
F0
sa(dp3393
g30
g6
(g8
S'R\n\xd7\xa3p=\xe2?'
tRp3394
sg32
F1
sg33
F0
sa(dp3395
g41
g6
(g8
S'033333\xf3\xbf'
tRp3396
sg43
F1
sg44
F0
sa(dp3397
g41
g6
(g8
S'<\xaeG\xe1z\x14\xde?'
tRp3398
sg43
F1
sg44
F0
sa(dp3399
g5
g261
sg10
F1
sg11
F0
sas(F0.28000000000000003
F0
tp3400
(lp3401
(dp3402
g21
g1087
sg23
F3253
sg24
F-0.050000000000000003
sa(dp3403
g21
g968
sg23
F1
sg24
F-0.00089999999999999998
sa(dp3404
g30
g1381
sg32
F6583
sg33
F0
sa(dp3405
g30
g538
sg32
F1
sg33
F0
sa(dp3406
g30
g6
(g8
S'Lfffff\xd6\xbf'
tRp3407
sg32
F1
sg33
F0
sa(dp3408
g30
g63
sg32
F1
sg33
F0
sa(dp3409
g30
g6
(g8
S'\xe5\xa3p=\n\xd7\xf7?'
tRp3410
sg32
F1
sg33
F-0
sa(dp3411
g41
g6
(g8
S'K\n\xd7\xa3p=\xf6?'
tRp3412
sg43
F1
sg44
F0
sa(dp3413
g5
g973
sg10
F1
sg11
F0
sas(F0.22
F-0.02
tp3414
(lp3415
(dp3416
g5
g3143
sg10
F45
sg11
F0
sa(dp3417
g5
g1035
sg10
F1
sg11
F0
sa(dp3418
g5
g146
sg10
F1
sg11
F0
sas(F0.92000000000000004
F0.44
tp3419
(lp3420
(dp3421
g5
g863
sg10
F9
sg11
F-0.57589999999999997
sa(dp3422
g5
g17
sg10
F7
sg11
F-0.61550000000000005
sas(F0.75
F0.01
tp3423
(lp3424
(dp3425
g5
g1463
sg10
F20
sg11
F0
sa(dp3426
g5
g17
sg10
F1
sg11
F0
sas(F-0.31
F0
tp3427
(lp3428
(dp3429
g133
g6
(g8
S'Z\x8f\xc2\xf5(\\\xf7\xbf'
tRp3430
sg135
F64
sg136
F-0.00089999999999999998
sa(dp3431
g5
g2113
sg10
F251
sg11
F-0.00089999999999999998
sa(dp3432
g5
g6
(g8
S'({\x14\xaeG\xe1\xca?'
tRp3433
sg10
F14
sg11
F-0.00089999999999999998
sa(dp3434
g5
g2853
sg10
F410
sg11
F0
sas(F0.5
F-0.01
tp3435
(lp3436
(dp3437
g5
g107
sg10
F251
sg11
F0
sa(dp3438
g5
g101
sg10
F1
sg11
F0
sa(dp3439
g5
g15
sg10
F1
sg11
F0
sa(dp3440
g5
g105
sg10
F1
sg11
F0
sas(F-0.53000000000000003
F0.01
tp3441
(lp3442
(dp3443
g5
g117
sg10
F11
sg11
F-0.001
sas(F0.63
F0
tp3444
(lp3445
(dp3446
g5
g1027
sg10
F1594
sg11
F0
sa(dp3447
g5
g1029
sg10
F1
sg11
F0
sa(dp3448
g5
g1031
sg10
F1
sg11
F0
sa(dp3449
g5
g17
sg10
F1
sg11
F0
sas(F-0.059999999999999998
F0.02
tp3450
(lp3451
(dp3452
g5
g1303
sg10
F8
sg11
F0.1188
sa(dp3453
g5
g283
sg10
F1
sg11
F0.023699999999999999
sas(F-0.16
F-0.01
tp3454
(lp3455
(dp3456
g30
g538
sg32
F354
sg33
F0
sa(dp3457
g5
g3132
sg10
F1
sg11
F0
sa(dp3458
g5
g1527
sg10
F1
sg11
F0
sa(dp3459
g5
g3122
sg10
F1
sg11
F0
sas(F0.70999999999999996
F0
tp3460
(lp3461
(dp3462
g5
g909
sg10
F935
sg11
F-0.050000000000000003
sa(dp3463
g5
g911
sg10
F30
sg11
F-0.052600000000000001
sa(dp3464
g5
g17
sg10
F8
sg11
F-0.053900000000000003
sa(dp3465
g5
g588
sg10
F5
sg11
F0
sas(F0.23999999999999999
F0.02
tp3466
(lp3467
(dp3468
g5
g1359
sg10
F2
sg11
F0
sas(F0.92000000000000004
F0.25
tp3469
(lp3470
(dp3471
g5
g351
sg10
F5
sg11
F-0.38379999999999997
sas(F0.92000000000000004
F0.34999999999999998
tp3472
(lp3473
(dp3474
g5
g2042
sg10
F3
sg11
F-0.22900000000000001
sa(dp3475
g5
g17
sg10
F4
sg11
F-0.30559999999999998
sas(F0.92000000000000004
F1.0900000000000001
tp3476
(lp3477
(dp3478
g5
g1293
sg10
F2
sg11
F-0.098799999999999999
sa(dp3479
g5
g17
sg10
F1
sg11
F-0.17710000000000001
sa(dp3480
g5
g1283
sg10
F2
sg11
F-0.13830000000000001
sas(F0.25
F0.02
tp3481
(lp3482
(dp3483
g5
g2827
sg10
F1
sg11
F0
sas(F-0.56999999999999995
F-0.01
tp3484
(lp3485
(dp3486
g5
g1094
sg10
F4
sg11
F0
sas(F0.55000000000000004
F-0.02
tp3487
(lp3488
(dp3489
g5
g2042
sg10
F47
sg11
F0
sa(dp3490
g5
g465
sg10
F1
sg11
F0
sa(dp3491
g5
g2895
sg10
F1
sg11
F0
sas(F0.92000000000000004
F0.45000000000000001
tp3492
(lp3493
(dp3494
g5
g797
sg10
F5
sg11
F-0.35010000000000002
sa(dp3495
g5
g17
sg10
F4
sg11
F-0.29949999999999999
sas(F0.27000000000000002
F-0.02
tp3496
(lp3497
(dp3498
g5
g292
sg10
F49
sg11
F0
sa(dp3499
g5
g909
sg10
F1
sg11
F0
sa(dp3500
g5
g294
sg10
F1
sg11
F0
sas(F-0.14000000000000001
F-0.02
tp3501
(lp3502
(dp3503
g5
g1319
sg10
F14
sg11
F0
sa(dp3504
g5
g117
sg10
F1
sg11
F0
sas(F0.29999999999999999
F-0.02
tp3505
(lp3506
(dp3507
g5
g622
sg10
F8
sg11
F-0.00020000000000000001
sa(dp3508
g5
g429
sg10
F1
sg11
F-0.00069999999999999999
sa(dp3509
g5
g6
(g8
S'\x1b\x85\xebQ\xb8\x1e\xf1\xbf'
tRp3510
sg10
F33
sg11
F-0.0001
sas(F-0.37
F-0.01
tp3511
(lp3512
(dp3513
g133
g6
(g8
S'\x00\xd7\xa3p=\n\xe7\xbf'
tRp3514
sg135
F3
sg136
F-0.0014
sa(dp3515
g5
g3228
sg10
F6
sg11
F-0.00020000000000000001
sa(dp3516
g5
g6
(g8
S'F\xe1z\x14\xaeG\xf9\xbf'
tRp3517
sg10
F154
sg11
F0
sas(F0
F-0.029999999999999999
tp3518
(lp3519
(dp3520
g5
g640
sg10
F1
sg11
F0.024400000000000002
sas(F0.92000000000000004
F0.37
tp3521
(lp3522
(dp3523
g5
g1638
sg10
F8
sg11
F-0.56799999999999995
sa(dp3524
g5
g17
sg10
F10
sg11
F-0.62460000000000004
sas(F-0.20000000000000001
F-0.02
tp3525
(lp3526
(dp3527
g5
g1942
sg10
F5
sg11
F0
sa(dp3528
g5
g3143
sg10
F1
sg11
F0
sas(F-0.37
F-0.02
tp3529
(lp3530
(dp3531
g5
g261
sg10
F1
sg11
F0
sas(F-0.10000000000000001
F0
tp3532
(lp3533
(dp3534
g21
g6
(g8
S'N\xb8\x1e\x85\xebQ\xf0\xbf'
tRp3535
sg23
F1962
sg24
F0
sa(dp3536
g21
g2338
sg23
F47
sg24
F0.00089999999999999998
sa(dp3537
g21
g6
(g8
S'\x9a\xebQ\xb8\x1e\x85\xe3?'
tRp3538
sg23
F1
sg24
F0
sa(dp3539
g30
g6
(g8
S':\n\xd7\xa3p=\xf2\xbf'
tRp3540
sg32
F1
sg33
F0
sa(dp3541
g30
g1567
sg32
F1
sg33
F0
sa(dp3542
g41
g6
(g8
S'\xa0p=\n\xd7\xa3\xf0\xbf'
tRp3543
sg43
F1
sg44
F0.00029999999999999997
sa(dp3544
g41
g1570
sg43
F187
sg44
F0.0048999999999999998
sa(dp3545
g5
g6
(g8
S'\xebQ\xb8\x1e\x85\xeb\xfd\xbf'
tRp3546
sg10
F1
sg11
F0
sa(dp3547
g5
g433
sg10
F1
sg11
F0.00040000000000000002
sas(F-0.33000000000000002
F0.02
tp3548
(lp3549
(dp3550
g5
g2781
sg10
F1
sg11
F-0
sas(F0.70999999999999996
F-0.02
tp3551
(lp3552
(dp3553
g5
g558
sg10
F32
sg11
F0
sa(dp3554
g5
g1813
sg10
F1
sg11
F0
sas(F0.57999999999999996
F-0.01
tp3555
(lp3556
(dp3557
g5
g979
sg10
F308
sg11
F0
sa(dp3558
g5
g981
sg10
F1
sg11
F0
sa(dp3559
g5
g984
sg10
F1
sg11
F0
sa(dp3560
g5
g202
sg10
F1
sg11
F0
sas(F-0.19
F-0.01
tp3561
(lp3562
(dp3563
g30
g1290
sg32
F301
sg33
F0
sa(dp3564
g5
g1942
sg10
F1
sg11
F0
sa(dp3565
g5
g261
sg10
F1
sg11
F0
sa(dp3566
g5
g1151
sg10
F1
sg11
F0
sas(F0.89000000000000001
F-0.01
tp3567
(lp3568
(dp3569
g5
g6
(g8
S'\xdc\xcc\xcc\xcc\xcc\xcc\xfc?'
tRp3570
sg10
F217
sg11
F-0.048000000000000001
sa(dp3571
g5
g797
sg10
F28
sg11
F-0.0083000000000000001
sas(F0.11
F0
tp3572
(lp3573
(dp3574
g21
g6
(g8
S'(33333\xe3\xbf'
tRp3575
sg23
F5495
sg24
F0
sa(dp3576
g21
g6
(g8
S'p\\\x8f\xc2\xf5(\xcc?'
tRp3577
sg23
F527
sg24
F0.0015
sa(dp3578
g30
g597
sg32
F81
sg33
F0.0020999999999999999
sa(dp3579
g30
g1545
sg32
F1
sg33
F0
sa(dp3580
g30
g6
(g8
S'\n\xaeG\xe1z\x14\xe6\xbf'
tRp3581
sg32
F1
sg33
F0
sa(dp3582
g30
g1719
sg32
F1
sg33
F0
sa(dp3583
g30
g2925
sg32
F1
sg33
F0
sa(dp3584
g41
g6
(g8
S'\xd9\xcc\xcc\xcc\xcc\xcc\xf0?'
tRp3585
sg43
F1
sg44
F0.00029999999999999997
sa(dp3586
g5
g2115
sg10
F66
sg11
F0.0016000000000000001
sas(F0.57999999999999996
F0
tp3587
(lp3588
(dp3589
g5
g6
(g8
S'F\xb8\x1e\x85\xebQ\xe0\xbf'
tRp3590
sg10
F1322
sg11
F0
sa(dp3591
g5
g202
sg10
F1
sg11
F0
sa(dp3592
g5
g17
sg10
F1
sg11
F0
sa(dp3593
g5
g712
sg10
F1
sg11
F0
sas(F0.92000000000000004
F0.42999999999999999
tp3594
(lp3595
(dp3596
g5
g504
sg10
F8
sg11
F-0.49209999999999998
sas(F0.32000000000000001
F0.35999999999999999
tp3597
(lp3598
(dp3599
g30
g6
(g8
S'\x00\x14\xaeG\xe1z\xb4\xbf'
tRp3600
sg32
F8
sg33
F-0.72729999999999995
sa(dp3601
g30
g97
sg32
F8
sg33
F-0.69279999999999997
sas(F0.050000000000000003
F0
tp3602
(lp3603
(dp3604
g21
g6
(g8
S'\x00\xd7\xa3p=\n\xe7\xbf'
tRp3605
sg23
F1
sg24
F0.31780000000000003
sa(dp3606
g21
g6
(g8
S'6\x85\xebQ\xb8\x1e\xed?'
tRp3607
sg23
F1
sg24
F0.2883
sa(dp3608
g21
g1774
sg23
F1971
sg24
F0.45750000000000002
sa(dp3609
g30
g823
sg32
F1162
sg33
F0.46079999999999999
sa(dp3610
g30
g1902
sg32
F793
sg33
F0.27429999999999999
sa(dp3611
g30
g821
sg32
F1
sg33
F0.02
sa(dp3612
g30
g6
(g8
S't\x8f\xc2\xf5(\\\xef?'
tRp3613
sg32
F1
sg33
F0.094399999999999998
sa(dp3614
g30
g6
(g8
S'\xe2Q\xb8\x1e\x85\xeb\xe9\xbf'
tRp3615
sg32
F1
sg33
F0.098000000000000004
sa(dp3616
g30
g519
sg32
F1072
sg33
F0.4622
sa(dp3617
g30
g176
sg32
F767
sg33
F1.0243
sa(dp3618
g5
g2023
sg10
F1
sg11
F0.3715
sas(F-0.23000000000000001
F0.01
tp3619
(lp3620
(dp3621
g30
g69
sg32
F280
sg33
F0
sa(dp3622
g5
g313
sg10
F1
sg11
F0
sa(dp3623
g5
g577
sg10
F1
sg11
F0
sa(dp3624
g5
g448
sg10
F1
sg11
F0
sas(F0.10000000000000001
F-0.01
tp3625
(lp3626
(dp3627
g21
g3577
sg23
F710
sg24
F0.0038
sa(dp3628
g30
g1719
sg32
F1
sg33
F0
sa(dp3629
g30
g823
sg32
F1
sg33
F0
sa(dp3630
g41
g3168
sg43
F260
sg44
F0.0111
sa(dp3631
g41
g825
sg43
F1
sg44
F0.0020999999999999999
sa(dp3632
g5
g2115
sg10
F1
sg11
F0.0058999999999999999
sas(F0.42999999999999999
F0.02
tp3633
(lp3634
(dp3635
g5
g565
sg10
F1
sg11
F0
sas(F-0.20000000000000001
F0
tp3636
(lp3637
(dp3638
g30
g6
(g8
S'n=\n\xd7\xa3p\xf5\xbf'
tRp3639
sg32
F572
sg33
F0
sa(dp3640
g30
g65
sg32
F1
sg33
F0
sa(dp3641
g30
g6
(g8
S'\n)\\\x8f\xc2\xf5\xe0?'
tRp3642
sg32
F1
sg33
F0
sa(dp3643
g41
g6
(g8
S'\xd4\xa3p=\n\xd7\xf3\xbf'
tRp3644
sg43
F1
sg44
F0
sa(dp3645
g5
g3138
sg10
F1
sg11
F0
sa(dp3646
g5
g261
sg10
F1
sg11
F0
sas(F0.90000000000000002
F0
tp3647
(lp3648
(dp3649
g5
g863
sg10
F474
sg11
F-0.0079000000000000008
sa(dp3650
g5
g3570
sg10
F2
sg11
F-0.050000000000000003
sas(F-0.080000000000000002
F-0.01
tp3651
(lp3652
(dp3653
g21
g1057
sg23
F566
sg24
F0.0028999999999999998
sa(dp3654
g30
g6
(g8
S'\x96\x99\x99\x99\x99\x99\xf1\xbf'
tRp3655
sg32
F1
sg33
F0
sa(dp3656
g5
g896
sg10
F37
sg11
F0.0067999999999999996
sa(dp3657
g5
g1073
sg10
F1
sg11
F0.0016000000000000001
sa(dp3658
g5
g1240
sg10
F1
sg11
F0.00069999999999999999
sas(F0.20999999999999999
F-0.02
tp3659
(lp3660
(dp3661
g5
g1351
sg10
F35
sg11
F0
sa(dp3662
g5
g75
sg10
F1
sg11
F0
sa(dp3663
g5
g2195
sg10
F1
sg11
F0
sa(dp3664
g5
g225
sg10
F1
sg11
F0
sas(F0.92000000000000004
F0.70999999999999996
tp3665
(lp3666
(dp3667
g5
g1029
sg10
F1
sg11
F-0.050000000000000003
sa(dp3668
g5
g17
sg10
F1
sg11
F-0.0935
sas(F0.23999999999999999
F0.01
tp3669
(lp3670
(dp3671
g30
g6
(g8
S'\x98=\n\xd7\xa3p\xdd?'
tRp3672
sg32
F1346
sg33
F0
sa(dp3673
g30
g2215
sg32
F1
sg33
F0
sa(dp3674
g30
g71
sg32
F1
sg33
F0
sa(dp3675
g41
g2217
sg43
F1
sg44
F0
sa(dp3676
g5
g2827
sg10
F1
sg11
F0
sas(F0.29999999999999999
F0.01
tp3677
(lp3678
(dp3679
g30
g95
sg32
F444
sg33
F-0.016799999999999999
sa(dp3680
g30
g123
sg32
F352
sg33
F-0.017299999999999999
sa(dp3681
g41
g1388
sg43
F546
sg44
F-0.0018
sas(F0.28999999999999998
F-0.01
tp3682
(lp3683
(dp3684
g21
g6
(g8
S'H33333\xe3?'
tRp3685
sg23
F567
sg24
F-0.00089999999999999998
sa(dp3686
g30
g1290
sg32
F946
sg33
F-0.00020000000000000001
sa(dp3687
g41
g91
sg43
F4
sg44
F-0.00020000000000000001
sa(dp3688
g5
g3510
sg10
F282
sg11
F-0
sa(dp3689
g5
g1319
sg10
F1
sg11
F0
sas(F-0.37
F0
tp3690
(lp3691
(dp3692
g133
g6
(g8
S'\x90\xd7\xa3p=\n\xb7?'
tRp3693
sg135
F1
sg136
F-0.0012999999999999999
sa(dp3694
g5
g3517
sg10
F654
sg11
F-0.00089999999999999998
sa(dp3695
g5
g6
(g8
S'\xa4G\xe1z\x14\xae\xe7\xbf'
tRp3696
sg10
F181
sg11
F-0.00089999999999999998
sas(F0.72999999999999998
F-0.02
tp3697
(lp3698
(dp3699
g5
g2385
sg10
F20
sg11
F0
sa(dp3700
g5
g995
sg10
F1
sg11
F0
sas(F0.32000000000000001
F0.19
tp3701
(lp3702
(dp3703
g30
g1162
sg32
F9
sg33
F-0.72350000000000003
sa(dp3704
g30
g97
sg32
F5
sg33
F-0.74029999999999996
sa(dp3705
g30
g1164
sg32
F12
sg33
F-0.71109999999999995
sas(F-0.12
F0.02
tp3706
(lp3707
(dp3708
g5
g975
sg10
F8
sg11
F0.00020000000000000001
sas(F-0.32000000000000001
F0.01
tp3709
(lp3710
(dp3711
g133
g3260
sg135
F3
sg136
F-0.00089999999999999998
sa(dp3712
g5
g6
(g8
S'\x98\xb8\x1e\x85\xebQ\xc8?'
tRp3713
sg10
F19
sg11
F-0.00020000000000000001
sa(dp3714
g5
g1597
sg10
F182
sg11
F-0
sas(F-0.5
F-0.01
tp3715
(lp3716
(dp3717
g133
g347
sg135
F20
sg136
F-0.0152
sas(F-0.51000000000000001
F-0.01
tp3718
(lp3719
(dp3720
g133
g1753
sg135
F4
sg136
F-0.035999999999999997
sa(dp3721
g5
g6
(g8
S'p=\n\xd7\xa3p\xfd\xbf'
tRp3722
sg10
F17
sg11
F-0.0016000000000000001
sas(F-0.34000000000000002
F0.01
tp3723
(lp3724
(dp3725
g133
g6
(g8
S'\xe8p=\n\xd7\xa3\xc0?'
tRp3726
sg135
F1
sg136
F-0.045100000000000001
sa(dp3727
g5
g2848
sg10
F182
sg11
F-0.0001
sas(F-0.11
F-0.01
tp3728
(lp3729
(dp3730
g21
g2338
sg23
F525
sg24
F0.00020000000000000001
sa(dp3731
g30
g3540
sg32
F1
sg33
F0
sa(dp3732
g41
g113
sg43
F1
sg44
F0
sa(dp3733
g5
g2620
sg10
F1
sg11
F0.0001
sa(dp3734
g5
g3546
sg10
F1
sg11
F0
sas(F0.69999999999999996
F0
tp3735
(lp3736
(dp3737
g5
g1437
sg10
F1478
sg11
F0
sa(dp3738
g5
g1222
sg10
F1
sg11
F0
sa(dp3739
g5
g1439
sg10
F1
sg11
F0
sa(dp3740
g5
g17
sg10
F1
sg11
F0
sas(F0.13
F-0.02
tp3741
(lp3742
(dp3743
g5
g465
sg10
F54
sg11
F0.00029999999999999997
sa(dp3744
g5
g269
sg10
F1
sg11
F0
sas(F0.32000000000000001
F0.070000000000000007
tp3745
(lp3746
(dp3747
g30
g1919
sg32
F14
sg33
F-0.82769999999999999
sa(dp3748
g30
g97
sg32
F15
sg33
F-0.87609999999999999
sas(F0.53000000000000003
F0
tp3749
(lp3750
(dp3751
g5
g1640
sg10
F1074
sg11
F0
sa(dp3752
g5
g1042
sg10
F1
sg11
F0
sa(dp3753
g5
g6
(g8
S'M\n\xd7\xa3p=\xfe?'
tRp3754
sg10
F1
sg11
F0
sa(dp3755
g5
g1826
sg10
F1
sg11
F0
sas(F0.19
F0.01
tp3756
(lp3757
(dp3758
g30
g2961
sg32
F1118
sg33
F0
sa(dp3759
g41
g2068
sg43
F1
sg44
F0
sa(dp3760
g5
g448
sg10
F1
sg11
F0
sas(F0.56000000000000005
F0.01
tp3761
(lp3762
(dp3763
g5
g1638
sg10
F195
sg11
F0
sa(dp3764
g5
g3205
sg10
F1
sg11
F0
sas(F0.040000000000000001
F0
tp3765
(lp3766
(dp3767
g21
g6
(g8
S'\xa4G\xe1z\x14\xae\xe7\xbf'
tRp3768
sg23
F1
sg24
F0.56810000000000005
sa(dp3769
g21
g174
sg23
F2613
sg24
F0.6724
sa(dp3770
g21
g6
(g8
S'\x92\x14\xaeG\xe1z\xec?'
tRp3771
sg23
F1
sg24
F0.43909999999999999
sa(dp3772
g30
g821
sg32
F967
sg33
F0.67920000000000003
sa(dp3773
g30
g683
sg32
F960
sg33
F0.6895
sa(dp3774
g30
g1187
sg32
F1
sg33
F0.093100000000000002
sa(dp3775
g30
g6
(g8
S'\xd0\x1e\x85\xebQ\xb8\xee?'
tRp3776
sg32
F1
sg33
F0.091600000000000001
sa(dp3777
g30
g3615
sg32
F1
sg33
F0.091200000000000003
sa(dp3778
g30
g6
(g8
S'\x86\xc2\xf5(\\\x8f\xea\xbf'
tRp3779
sg32
F1
sg33
F0.093299999999999994
sa(dp3780
g30
g3613
sg32
F1
sg33
F0.091899999999999996
sa(dp3781
g30
g667
sg32
F830
sg33
F0.69059999999999999
sa(dp3782
g30
g178
sg32
F1178
sg33
F1.4007000000000001
sa(dp3783
g5
g1193
sg10
F1
sg11
F0.25569999999999998
sa(dp3784
g5
g367
sg10
F1
sg11
F0.024299999999999999
sas(F0.45000000000000001
F-0.02
tp3785
(lp3786
(dp3787
g5
g1607
sg10
F60
sg11
F0
sa(dp3788
g5
g797
sg10
F1
sg11
F0
sa(dp3789
g5
g1605
sg10
F1
sg11
F0
sas(F-0.01
F-0.01
tp3790
(lp3791
(dp3792
g21
g1899
sg23
F631
sg24
F0.72999999999999998
sa(dp3793
g30
g681
sg32
F91
sg33
F1
sa(dp3794
g41
g884
sg43
F82
sg44
F0.74299999999999999
sa(dp3795
g41
g806
sg43
F25
sg44
F0.69359999999999999
sa(dp3796
g5
g6
(g8
S'\xb7\x1e\x85\xebQ\xb8\xfa\xbf'
tRp3797
sg10
F38
sg11
F0.73509999999999998
sas(F-0.059999999999999998
F0
tp3798
(lp3799
(dp3800
g21
g6
(g8
S'\x0c\xaeG\xe1z\x14\xee\xbf'
tRp3801
sg23
F1
sg24
F0.00029999999999999997
sa(dp3802
g21
g1001
sg23
F1252
sg24
F0.13150000000000001
sa(dp3803
g21
g6
(g8
S'*\xaeG\xe1z\x14\xe6?'
tRp3804
sg23
F1
sg24
F0.00029999999999999997
sa(dp3805
g30
g6
(g8
S'\x02\xd7\xa3p=\n\xef\xbf'
tRp3806
sg32
F1
sg33
F0.00029999999999999997
sa(dp3807
g30
g1567
sg32
F1
sg33
F0.00059999999999999995
sa(dp3808
g30
g1661
sg32
F1
sg33
F0.00040000000000000002
sa(dp3809
g30
g31
sg32
F1
sg33
F0.00050000000000000001
sa(dp3810
g30
g1494
sg32
F625
sg33
F0.1192
sa(dp3811
g30
g669
sg32
F726
sg33
F0.064799999999999996
sa(dp3812
g41
g1856
sg43
F13
sg44
F0.071800000000000003
sa(dp3813
g41
g6
(g8
S'\xce\x1e\x85\xebQ\xb8\xe6?'
tRp3814
sg43
F604
sg44
F0.15040000000000001
sa(dp3815
g5
g3302
sg10
F1
sg11
F0.0035000000000000001
sa(dp3816
g5
g1009
sg10
F1
sg11
F0.048099999999999997
sas(F-0.02
F-0.01
tp3817
(lp3818
(dp3819
g21
g663
sg23
F645
sg24
F1
sa(dp3820
g30
g1661
sg32
F35
sg33
F0.75370000000000004
sa(dp3821
g30
g681
sg32
F54
sg33
F0.76119999999999999
sa(dp3822
g41
g884
sg43
F9
sg44
F0.5706
sa(dp3823
g41
g1666
sg43
F52
sg44
F0.7641
sa(dp3824
g5
g685
sg10
F32
sg11
F0.75780000000000003
sas(F-0.56999999999999995
F0
tp3825
(lp3826
(dp3827
g5
g3122
sg10
F11
sg11
F0
sa(dp3828
g5
g3132
sg10
F1
sg11
F0
sa(dp3829
g5
g189
sg10
F1
sg11
F0
sas(F0.55000000000000004
F-0.01
tp3830
(lp3831
(dp3832
g5
g1697
sg10
F266
sg11
F0
sa(dp3833
g5
g1846
sg10
F1
sg11
F0
sa(dp3834
g5
g1703
sg10
F1
sg11
F0
sas(F0.13
F0.01
tp3835
(lp3836
(dp3837
g30
g2690
sg32
F894
sg33
F0
sa(dp3838
g41
g1514
sg43
F1
sg44
F0
sa(dp3839
g41
g605
sg43
F1
sg44
F0
sa(dp3840
g5
g2546
sg10
F1
sg11
F0
sas(F-0.28000000000000003
F-0.01
tp3841
(lp3842
(dp3843
g30
g157
sg32
F237
sg33
F0
sa(dp3844
g5
g615
sg10
F1
sg11
F0
sa(dp3845
g5
g267
sg10
F1
sg11
F0
sa(dp3846
g5
g261
sg10
F1
sg11
F0
sas(F0.39000000000000001
F-0.01
tp3847
(lp3848
(dp3849
g5
g739
sg10
F195
sg11
F0
sa(dp3850
g5
g646
sg10
F1
sg11
F0
sa(dp3851
g5
g929
sg10
F1
sg11
F0
sa(dp3852
g5
g744
sg10
F1
sg11
F0
sas(F-0.32000000000000001
F0
tp3853
(lp3854
(dp3855
g133
g6
(g8
S'\xacG\xe1z\x14\xae\xf7\xbf'
tRp3856
sg135
F20
sg136
F-0.001
sa(dp3857
g5
g634
sg10
F743
sg11
F-0.00089999999999999998
sa(dp3858
g5
g3713
sg10
F40
sg11
F-0.00089999999999999998
sas(F0.92000000000000004
F0.58999999999999997
tp3859
(lp3860
(dp3861
g5
g995
sg10
F2
sg11
F-0.18310000000000001
sas(F0.16
F0.02
tp3862
(lp3863
(dp3864
g133
g6
(g8
S'\x10R\xb8\x1e\x85\xeb\xd1?'
tRp3865
sg135
F2
sg136
F0
sas(F-0.57999999999999996
F-0.01
tp3866
(lp3867
(dp3868
g5
g3132
sg10
F4
sg11
F0
sas(F0.77000000000000002
F-0.01
tp3869
(lp3870
(dp3871
g5
g542
sg10
F234
sg11
F0
sa(dp3872
g5
g544
sg10
F1
sg11
F0
sas(F0.17000000000000001
F-0.01
tp3873
(lp3874
(dp3875
g21
g3000
sg23
F1369
sg24
F0
sa(dp3876
g30
g486
sg32
F1
sg33
F0
sa(dp3877
g30
g488
sg32
F1
sg33
F0
sa(dp3878
g41
g697
sg43
F1
sg44
F0
sa(dp3879
g41
g6
(g8
S'\xe8\xff\xff\xff\xff\xff\xdf\xbf'
tRp3880
sg43
F1
sg44
F0
sa(dp3881
g5
g3009
sg10
F1
sg11
F0
sas(F0.62
F-0.02
tp3882
(lp3883
(dp3884
g5
g1359
sg10
F39
sg11
F0
sa(dp3885
g5
g1914
sg10
F1
sg11
F0
sa(dp3886
g5
g1911
sg10
F1
sg11
F0
sa(dp3887
g5
g2417
sg10
F1
sg11
F0
sas(F0.56000000000000005
F-0.02
tp3888
(lp3889
(dp3890
g5
g202
sg10
F43
sg11
F0
sa(dp3891
g5
g712
sg10
F1
sg11
F0
sa(dp3892
g5
g3590
sg10
F1
sg11
F0
sas(F0.23000000000000001
F-0.01
tp3893
(lp3894
(dp3895
g21
g6
(g8
S'\xe0\x1e\x85\xebQ\xb8\xde?'
tRp3896
sg23
F1757
sg24
F0
sa(dp3897
g21
g59
sg23
F1
sg24
F0
sa(dp3898
g30
g63
sg32
F1
sg33
F0
sa(dp3899
g30
g69
sg32
F1
sg33
F0
sa(dp3900
g5
g146
sg10
F1
sg11
F0
sas(F0.32000000000000001
F0.39000000000000001
tp3901
(lp3902
(dp3903
g30
g6
(g8
S'\xb0Q\xb8\x1e\x85\xeb\xc1\xbf'
tRp3904
sg32
F6
sg33
F-0.48280000000000001
sa(dp3905
g41
g1858
sg43
F3
sg44
F-0.22059999999999999
sas(F-0.60999999999999999
F-0.01
tp3906
(lp3907
(dp3908
g5
g261
sg10
F2
sg11
F0
sas(F-0.46000000000000002
F-0.02
tp3909
(lp3910
(dp3911
g5
g2580
sg10
F1
sg11
F-0
sas(F-0.029999999999999999
F0
tp3912
(lp3913
(dp3914
g21
g6
(g8
S' \\\x8f\xc2\xf5(\xec\xbf'
tRp3915
sg23
F21
sg24
F0.79759999999999998
sa(dp3916
g21
g1618
sg23
F2967
sg24
F0.80020000000000002
sa(dp3917
g21
g6
(g8
S'\x16\x00\x00\x00\x00\x00\xe8?'
tRp3918
sg23
F89
sg24
F0.94269999999999998
sa(dp3919
g30
g1143
sg32
F727
sg33
F0.80359999999999998
sa(dp3920
g30
g279
sg32
F301
sg33
F0.77729999999999999
sa(dp3921
g30
g277
sg32
F70
sg33
F0.79210000000000003
sa(dp3922
g30
g529
sg32
F62
sg33
F0.80220000000000002
sa(dp3923
g30
g2729
sg32
F50
sg33
F0.80769999999999997
sa(dp3924
g30
g3806
sg32
F60
sg33
F0.8014
sa(dp3925
g30
g675
sg32
F90
sg33
F0.8125
sa(dp3926
g30
g1065
sg32
F293
sg33
F0.78520000000000001
sa(dp3927
g30
g517
sg32
F162
sg33
F0.81240000000000001
sa(dp3928
g5
g2488
sg10
F1
sg11
F0.26200000000000001
sas(F0.63
F-0.01
tp3929
(lp3930
(dp3931
g5
g1359
sg10
F369
sg11
F0
sa(dp3932
g5
g1029
sg10
F1
sg11
F0
sa(dp3933
g5
g1911
sg10
F1
sg11
F0
sa(dp3934
g5
g1914
sg10
F1
sg11
F0
sas(F0.62
F0
tp3935
(lp3936
(dp3937
g5
g2417
sg10
F1612
sg11
F0
sa(dp3938
g5
g1446
sg10
F1
sg11
F0
sa(dp3939
g5
g17
sg10
F1
sg11
F0
sa(dp3940
g5
g1784
sg10
F1
sg11
F0
sas(F0.059999999999999998
F0.02
tp3941
(lp3942
(dp3943
g5
g901
sg10
F1
sg11
F0.00040000000000000002
sas(F-0.52000000000000002
F0
tp3944
(lp3945
(dp3946
g133
g6
(g8
S'\x14\xaeG\xe1z\x14\xfe\xbf'
tRp3947
sg135
F7
sg136
F-0.2303
sa(dp3948
g5
g2620
sg10
F129
sg11
F-0.0068999999999999999
sas(F0.37
F0.01
tp3949
(lp3950
(dp3951
g5
g542
sg10
F161
sg11
F0
sa(dp3952
g5
g1009
sg10
F1
sg11
F0
sas(F-0.48999999999999999
F-0.01
tp3953
(lp3954
(dp3955
g133
g6
(g8
S'\xb0\x1e\x85\xebQ\xb8\xee\xbf'
tRp3956
sg135
F7
sg136
F-0.031300000000000001
sa(dp3957
g5
g6
(g8
S'\xcc\xcc\xcc\xcc\xcc\xcc\xfc\xbf'
tRp3958
sg10
F16
sg11
F-0.0022000000000000001
sas(F-0.080000000000000002
F0
tp3959
(lp3960
(dp3961
g21
g6
(g8
S'T\x8f\xc2\xf5(\\\xef\xbf'
tRp3962
sg23
F193
sg24
F0
sa(dp3963
g21
g275
sg23
F2264
sg24
F0.0129
sa(dp3964
g21
g6
(g8
S'\xe2\xcc\xcc\xcc\xcc\xcc\xe4?'
tRp3965
sg23
F1
sg24
F0
sa(dp3966
g30
g2727
sg32
F1
sg33
F0
sa(dp3967
g30
g759
sg32
F1
sg33
F0
sa(dp3968
g30
g2483
sg32
F1
sg33
F0
sa(dp3969
g30
g3655
sg32
F1
sg33
F0.00059999999999999995
sa(dp3970
g30
g279
sg32
F1
sg33
F0.00069999999999999999
sa(dp3971
g41
g6
(g8
S'\xf8\xff\xff\xff\xff\xff\xef\xbf'
tRp3972
sg43
F1
sg44
F0.0035000000000000001
sa(dp3973
g41
g6
(g8
S'\x86=\n\xd7\xa3p\xe5?'
tRp3974
sg43
F259
sg44
F0.024899999999999999
sa(dp3975
g5
g6
(g8
S'G\xe1z\x14\xaeG\xfd\xbf'
tRp3976
sg10
F1
sg11
F0.00020000000000000001
sas(F-0.12
F0.01
tp3977
(lp3978
(dp3979
g21
g1087
sg23
F460
sg24
F0.00040000000000000002
sa(dp3980
g30
g759
sg32
F1
sg33
F0
sa(dp3981
g5
g6
(g8
S'R\n\xd7\xa3p=\xe2?'
tRp3982
sg10
F1
sg11
F0.00029999999999999997
sa(dp3983
g5
g6
(g8
S'\x9d\xc2\xf5(\\\x8f\xf6?'
tRp3984
sg10
F1
sg11
F0
sas(F0.66000000000000003
F0.01
tp3985
(lp3986
(dp3987
g5
g2092
sg10
F201
sg11
F0
sa(dp3988
g5
g17
sg10
F1
sg11
F0
sas(F0.39000000000000001
F0
tp3989
(lp3990
(dp3991
g5
g3240
sg10
F670
sg11
F0
sa(dp3992
g5
g929
sg10
F1
sg11
F0
sa(dp3993
g5
g3277
sg10
F1
sg11
F0
sa(dp3994
g5
g840
sg10
F1
sg11
F0
sas(F0.92000000000000004
F0.56999999999999995
tp3995
(lp3996
(dp3997
g5
g437
sg10
F1
sg11
F-0.050000000000000003
sa(dp3998
g5
g17
sg10
F1
sg11
F-0.089999999999999997
sas(F0.20000000000000001
F0
tp3999
(lp4000
(dp4001
g21
g6
(g8
S'\xc8z\x14\xaeG\xe1\xda\xbf'
tRp4002
sg23
F8849
sg24
F0
sa(dp4003
g21
g1271
sg23
F1
sg24
F0
sa(dp4004
g30
g79
sg32
F1
sg33
F0
sa(dp4005
g30
g310
sg32
F1
sg33
F0
sa(dp4006
g30
g6
(g8
S'F\xb8\x1e\x85\xebQ\xe0\xbf'
tRp4007
sg32
F1
sg33
F0
sa(dp4008
g30
g157
sg32
F1
sg33
F0
sa(dp4009
g30
g325
sg32
F1
sg33
F0
sa(dp4010
g41
g329
sg43
F1
sg44
F0
sa(dp4011
g5
g1279
sg10
F1
sg11
F0
sas(F0.59999999999999998
F0.01
tp4012
(lp4013
(dp4014
g5
g984
sg10
F215
sg11
F0
sa(dp4015
g5
g17
sg10
F1
sg11
F0
sas(F0.68000000000000005
F-0.01
tp4016
(lp4017
(dp4018
g5
g1211
sg10
F328
sg11
F0
sa(dp4019
g5
g1216
sg10
F1
sg11
F0
sa(dp4020
g5
g1213
sg10
F1
sg11
F0
sa(dp4021
g5
g142
sg10
F1
sg11
F0
sas(F0.22
F0
tp4022
(lp4023
(dp4024
g21
g6
(g8
S'8\xb8\x1e\x85\xebQ\xd8\xbf'
tRp4025
sg23
F11214
sg24
F0
sa(dp4026
g21
g298
sg23
F1
sg24
F0
sa(dp4027
g30
g65
sg32
F1
sg33
F0
sa(dp4028
g30
g214
sg32
F1
sg33
F0
sa(dp4029
g30
g6
(g8
S'\xfc\xadG\xe1z\x14\xde\xbf'
tRp4030
sg32
F1
sg33
F0
sa(dp4031
g30
g196
sg32
F1
sg33
F0
sa(dp4032
g30
g1712
sg32
F1
sg33
F0
sa(dp4033
g41
g1715
sg43
F1
sg44
F0
sa(dp4034
g5
g306
sg10
F1
sg11
F0
sas(F0.92000000000000004
F0.94999999999999996
tp4035
(lp4036
(dp4037
g5
g929
sg10
F3
sg11
F-0.31390000000000001
sa(dp4038
g5
g17
sg10
F1
sg11
F-0.65180000000000005
sa(dp4039
g5
g2443
sg10
F2
sg11
F-0.10340000000000001
sa(dp4040
g5
g931
sg10
F2
sg11
F-0.13950000000000001
sas(F0.37
F-0.01
tp4041
(lp4042
(dp4043
g5
g1364
sg10
F199
sg11
F0
sa(dp4044
g5
g6
(g8
S'\x16\x85\xebQ\xb8\x1e\xed\xbf'
tRp4045
sg10
F1
sg11
F0
sa(dp4046
g5
g1451
sg10
F1
sg11
F0
sa(dp4047
g5
g724
sg10
F1
sg11
F0
sas(F0.80000000000000004
F0.01
tp4048
(lp4049
(dp4050
g5
g17
sg10
F2
sg11
F0
sas(F0.71999999999999997
F-0.02
tp4051
(lp4052
(dp4053
g5
g622
sg10
F16
sg11
F0
sa(dp4054
g5
g1463
sg10
F1
sg11
F0
sas(F-0.38
F-0.01
tp4055
(lp4056
(dp4057
g133
g6
(g8
S'F\xe1z\x14\xaeG\xf9\xbf'
tRp4058
sg135
F2
sg136
F-0.027099999999999999
sa(dp4059
g5
g3696
sg10
F142
sg11
F0
sa(dp4060
g5
g2185
sg10
F1
sg11
F0
sa(dp4061
g5
g261
sg10
F1
sg11
F0
sas(F-0.40000000000000002
F0.01
tp4062
(lp4063
(dp4064
g133
g6
(g8
S'\x80\x18\xaeG\xe1z\x84?'
tRp4065
sg135
F1
sg136
F-0.042900000000000001
sa(dp4066
g5
g1372
sg10
F102
sg11
F-0.00029999999999999997
sas(F-0.20000000000000001
F-0.01
tp4067
(lp4068
(dp4069
g30
g63
sg32
F296
sg33
F0
sa(dp4070
g5
g1151
sg10
F1
sg11
F0
sa(dp4071
g5
g261
sg10
F1
sg11
F0
sa(dp4072
g5
g1207
sg10
F1
sg11
F0
sas(F0.26000000000000001
F-0.01
tp4073
(lp4074
(dp4075
g21
g1410
sg23
F1851
sg24
F0
sa(dp4076
g30
g214
sg32
F1
sg33
F0
sa(dp4077
g41
g6
(g8
S'`\x14\xaeG\xe1z\xd4\xbf'
tRp4078
sg43
F1
sg44
F0
sa(dp4079
g5
g2236
sg10
F1
sg11
F0
sa(dp4080
g5
g1421
sg10
F1
sg11
F0
sas(F0.32000000000000001
F0.089999999999999997
tp4081
(lp4082
(dp4083
g30
g3672
sg32
F8
sg33
F-0.66539999999999999
sa(dp4084
g30
g69
sg32
F10
sg33
F-0.60640000000000005
sa(dp4085
g41
g1858
sg43
F3
sg44
F-0.49680000000000002
sa(dp4086
g41
g73
sg43
F8
sg44
F-0.46460000000000001
sas(F0.81999999999999995
F0
tp4087
(lp4088
(dp4089
g5
g744
sg10
F101
sg11
F0
sas(F-0.23000000000000001
F-0.02
tp4090
(lp4091
(dp4092
g5
g258
sg10
F6
sg11
F0
sa(dp4093
g5
g2011
sg10
F1
sg11
F0
sas(F-0.29999999999999999
F-0.02
tp4094
(lp4095
(dp4096
g5
g1695
sg10
F2
sg11
F0
sas(F-0.26000000000000001
F0
tp4097
(lp4098
(dp4099
g30
g6
(g8
S'Z\x8f\xc2\xf5(\\\xf7\xbf'
tRp4100
sg32
F527
sg33
F0
sa(dp4101
g30
g219
sg32
F1
sg33
F0
sa(dp4102
g5
g2774
sg10
F1
sg11
F0
sa(dp4103
g5
g991
sg10
F1
sg11
F0
sa(dp4104
g5
g261
sg10
F1
sg11
F0
sas(F0.16
F0.01
tp4105
(lp4106
(dp4107
g30
g1393
sg32
F1005
sg33
F0
sa(dp4108
g30
g1396
sg32
F1
sg33
F0
sa(dp4109
g41
g1398
sg43
F1
sg44
F0
sa(dp4110
g5
g6
(g8
S'sfffff\xf2?'
tRp4111
sg10
F1
sg11
F0
sas(F-0.44
F-0.01
tp4112
(lp4113
(dp4114
g133
g6
(g8
S'|\xebQ\xb8\x1e\x85\xeb\xbf'
tRp4115
sg135
F15
sg136
F-0.0114
sa(dp4116
g5
g3090
sg10
F43
sg11
F-0
sas(F0.92000000000000004
F0
tp4117
(lp4118
(dp4119
g5
g17
sg10
F33
sg11
F-1.8065
sa(dp4120
g5
g2327
sg10
F2492
sg11
F-1.5884
sas(F0.39000000000000001
F0.01
tp4121
(lp4122
(dp4123
g5
g1451
sg10
F168
sg11
F0
sa(dp4124
g5
g6
(g8
S'\x7f=\n\xd7\xa3p\xf9?'
tRp4125
sg10
F1
sg11
F0
sas(F0.60999999999999999
F0
tp4126
(lp4127
(dp4128
g5
g389
sg10
F1596
sg11
F0
sa(dp4129
g5
g387
sg10
F1
sg11
F0
sa(dp4130
g5
g391
sg10
F1
sg11
F0
sa(dp4131
g5
g17
sg10
F1
sg11
F0
sas(F0.56000000000000005
F-0.01
tp4132
(lp4133
(dp4134
g5
g2895
sg10
F295
sg11
F0
sa(dp4135
g5
g1697
sg10
F1
sg11
F0
sa(dp4136
g5
g465
sg10
F1
sg11
F0
sa(dp4137
g5
g2042
sg10
F1
sg11
F0
sa(dp4138
g5
g2044
sg10
F1
sg11
F0
sas(F0.92000000000000004
F0.75
tp4139
(lp4140
(dp4141
g5
g981
sg10
F4
sg11
F-0.3105
sa(dp4142
g5
g17
sg10
F1
sg11
F-0.091600000000000001
sas(F-0.44
F0
tp4143
(lp4144
(dp4145
g133
g6
(g8
S'\x84\xebQ\xb8\x1e\x85\xfb\xbf'
tRp4146
sg135
F2
sg136
F-0.033399999999999999
sa(dp4147
g5
g2580
sg10
F325
sg11
F-0.00089999999999999998
sa(dp4148
g5
g1650
sg10
F47
sg11
F-0.0020999999999999999
sas(F0.53000000000000003
F0.01
tp4149
(lp4150
(dp4151
g5
g150
sg10
F192
sg11
F0
sa(dp4152
g5
g3754
sg10
F1
sg11
F0
sa(dp4153
g5
g1555
sg10
F1
sg11
F0
sas(F0.46000000000000002
F-0.01
tp4154
(lp4155
(dp4156
g5
g1605
sg10
F219
sg11
F0
sa(dp4157
g5
g1607
sg10
F1
sg11
F0
sa(dp4158
g5
g797
sg10
F1
sg11
F0
sa(dp4159
g5
g901
sg10
F1
sg11
F0
sas(F-0.33000000000000002
F-0.02
tp4160
(lp4161
(dp4162
g5
g2113
sg10
F1
sg11
F0
sa(dp4163
g5
g2323
sg10
F1
sg11
F-0
sas(F0.46000000000000002
F0.01
tp4164
(lp4165
(dp4166
g5
g1633
sg10
F187
sg11
F0
sa(dp4167
g5
g367
sg10
F1
sg11
F0
sa(dp4168
g5
g1631
sg10
F1
sg11
F0
sas(F0.31
F-0.02
tp4169
(lp4170
(dp4171
g5
g1789
sg10
F4
sg11
F-0.0074999999999999997
sa(dp4172
g5
g995
sg10
F43
sg11
F-0.0018
sas(F0.68999999999999995
F-0.01
tp4173
(lp4174
(dp4175
g5
g1222
sg10
F324
sg11
F0
sa(dp4176
g5
g1211
sg10
F1
sg11
F0
sa(dp4177
g5
g1437
sg10
F1
sg11
F0
sa(dp4178
g5
g1439
sg10
F1
sg11
F0
sas(F0.56999999999999995
F-0.01
tp4179
(lp4180
(dp4181
g5
g202
sg10
F291
sg11
F0
sa(dp4182
g5
g3590
sg10
F1
sg11
F0
sa(dp4183
g5
g465
sg10
F1
sg11
F0
sa(dp4184
g5
g712
sg10
F1
sg11
F0
sas(F-0.13
F0.01
tp4185
(lp4186
(dp4187
g21
g1324
sg23
F413
sg24
F0
sa(dp4188
g41
g2155
sg43
F1
sg44
F0
sa(dp4189
g41
g2231
sg43
F1
sg44
F0
sas(F0.34999999999999998
F-0.029999999999999999
tp4190
(lp4191
(dp4192
g5
g1364
sg10
F1
sg11
F0
sas(F0.92000000000000004
F0.63
tp4193
(lp4194
(dp4195
g5
g909
sg10
F6
sg11
F-0.38469999999999999
sas(F-0.029999999999999999
F0.02
tp4196
(lp4197
(dp4198
g5
g371
sg10
F4
sg11
F0.97119999999999995
sas(F0.32000000000000001
F0.41999999999999998
tp4199
(lp4200
(dp4201
g30
g6
(g8
S'`\x99\x99\x99\x99\x99\xc9\xbf'
tRp4202
sg32
F4
sg33
F-0.2261
sa(dp4203
g30
g97
sg32
F3
sg33
F-0.25130000000000002
sa(dp4204
g41
g1570
sg43
F3
sg44
F-0.18679999999999999
sas(F0.070000000000000007
F-0.01
tp4205
(lp4206
(dp4207
g21
g2874
sg23
F615
sg24
F0.086900000000000005
sa(dp4208
g30
g1187
sg32
F1
sg33
F0.00040000000000000002
sa(dp4209
g30
g1132
sg32
F1
sg33
F0.00069999999999999999
sa(dp4210
g41
g1265
sg43
F249
sg44
F0.1183
sa(dp4211
g41
g6
(g8
S'\\fffff\xe6\xbf'
tRp4212
sg43
F1
sg44
F0.0023999999999999998
sa(dp4213
g5
g3045
sg10
F1
sg11
F0.1106
sas(F0.81999999999999995
F0.01
tp4214
(lp4215
(dp4216
g5
g1121
sg10
F1
sg11
F0
sas(F0.92000000000000004
F0.95999999999999996
tp4217
(lp4218
(dp4219
g5
g1364
sg10
F3
sg11
F-0.34789999999999999
sa(dp4220
g5
g17
sg10
F3
sg11
F-0.30199999999999999
sas(F0.92000000000000004
F1.02
tp4221
(lp4222
(dp4223
g5
g849
sg10
F2
sg11
F-0.13719999999999999
sa(dp4224
g5
g17
sg10
F1
sg11
F-0.089800000000000005
sa(dp4225
g5
g429
sg10
F1
sg11
F-0.051200000000000002
sas(F0.69999999999999996
F-0.02
tp4226
(lp4227
(dp4228
g5
g1156
sg10
F20
sg11
F0
sa(dp4229
g5
g653
sg10
F1
sg11
F0
sas(F0.46999999999999997
F-0.01
tp4230
(lp4231
(dp4232
g5
g865
sg10
F219
sg11
F0
sa(dp4233
g5
g861
sg10
F1
sg11
F0
sa(dp4234
g5
g863
sg10
F1
sg11
F0
sas(F-0.42999999999999999
F0.01
tp4235
(lp4236
(dp4237
g133
g582
sg135
F9
sg136
F-0.0094999999999999998
sa(dp4238
g5
g1650
sg10
F45
sg11
F-0
sa(dp4239
g5
g1578
sg10
F1
sg11
F0
sas(F0.54000000000000004
F0.01
tp4240
(lp4241
(dp4242
g5
g1826
sg10
F190
sg11
F0
sa(dp4243
g5
g2546
sg10
F1
sg11
F0
sa(dp4244
g5
g3754
sg10
F1
sg11
F0
sas(F0.71999999999999997
F-0.01
tp4245
(lp4246
(dp4247
g5
g558
sg10
F245
sg11
F0
sa(dp4248
g5
g2703
sg10
F1
sg11
F0
sa(dp4249
g5
g1813
sg10
F1
sg11
F0
sa(dp4250
g5
g653
sg10
F1
sg11
F0
sas(F0.71999999999999997
F0
tp4251
(lp4252
(dp4253
g5
g653
sg10
F489
sg11
F-0.47770000000000001
sa(dp4254
g5
g138
sg10
F13
sg11
F-0.52400000000000002
sa(dp4255
g5
g17
sg10
F14
sg11
F-0.5161
sa(dp4256
g5
g1156
sg10
F15
sg11
F-0.50629999999999997
sas(F0.40999999999999998
F0.01
tp4257
(lp4258
(dp4259
g5
g744
sg10
F173
sg11
F0
sa(dp4260
g5
g742
sg10
F1
sg11
F0
sas(F0.14999999999999999
F0
tp4261
(lp4262
(dp4263
g21
g2981
sg23
F7674
sg24
F0
sa(dp4264
g30
g157
sg32
F1
sg33
F0
sa(dp4265
g30
g1393
sg32
F1
sg33
F0
sa(dp4266
g30
g693
sg32
F1
sg33
F0
sa(dp4267
g30
g6
(g8
S'z\xebQ\xb8\x1e\x85\xe3\xbf'
tRp4268
sg32
F1
sg33
F0
sa(dp4269
g30
g1545
sg32
F1
sg33
F0
sa(dp4270
g30
g1396
sg32
F1
sg33
F0
sa(dp4271
g41
g1398
sg43
F1
sg44
F0
sa(dp4272
g5
g2987
sg10
F1
sg11
F0
sas(F0.38
F0
tp4273
(lp4274
(dp4275
g5
g4045
sg10
F634
sg11
F0
sa(dp4276
g5
g4125
sg10
F1
sg11
F0
sa(dp4277
g5
g1451
sg10
F1
sg11
F0
sa(dp4278
g5
g1364
sg10
F1
sg11
F0
sas(F0.78000000000000003
F-0.02
tp4279
(lp4280
(dp4281
g5
g1459
sg10
F3
sg11
F0
sa(dp4282
g5
g1451
sg10
F1
sg11
F0
sas(F-0.53000000000000003
F0
tp4283
(lp4284
(dp4285
g133
g6
(g8
S'ffffff\xfe\xbf'
tRp4286
sg135
F16
sg136
F-0.51629999999999998
sa(dp4287
g5
g1562
sg10
F25
sg11
F-0.0045999999999999999
sa(dp4288
g5
g138
sg10
F88
sg11
F-0.00020000000000000001
sas(F0.040000000000000001
F0.01
tp4289
(lp4290
(dp4291
g21
g2598
sg23
F615
sg24
F0.67249999999999999
sa(dp4292
g30
g178
sg32
F1
sg33
F0.42230000000000001
sa(dp4293
g30
g6
(g8
S'\xc6G\xe1z\x14\xae\xef?'
tRp4294
sg32
F1
sg33
F0.0872
sa(dp4295
g41
g182
sg43
F1
sg44
F0.41599999999999998
sa(dp4296
g5
g6
(g8
S'\x92\x14\xaeG\xe1z\xec?'
tRp4297
sg10
F137
sg11
F1.0008999999999999
sas(F0.92000000000000004
F1.03
tp4298
(lp4299
(dp4300
g5
g1535
sg10
F2
sg11
F-0.14630000000000001
sa(dp4301
g5
g17
sg10
F2
sg11
F-0.25640000000000002
sas(F0.83999999999999997
F-0.01
tp4302
(lp4303
(dp4304
g5
g1726
sg10
F254
sg11
F0
sa(dp4305
g5
g413
sg10
F1
sg11
F0
sa(dp4306
g5
g168
sg10
F1
sg11
F0
sas(F-0.17000000000000001
F0.02
tp4307
(lp4308
(dp4309
g5
g1351
sg10
F1
sg11
F0
sas(F0.84999999999999998
F0.01
tp4310
(lp4311
(dp4312
g5
g2993
sg10
F1
sg11
F0
sas(F0.040000000000000001
F0.02
tp4313
(lp4314
(dp4315
g5
g630
sg10
F5
sg11
F0.1774
sas(F-0.58999999999999997
F0.01
tp4316
(lp4317
(dp4318
g5
g3385
sg10
F2
sg11
F0
sas(F0.32000000000000001
F0.28000000000000003
tp4319
(lp4320
(dp4321
g21
g174
sg23
F12
sg24
F-1.0736000000000001
sa(dp4322
g21
g2333
sg23
F7
sg24
F-1.1284000000000001
sa(dp4323
g41
g182
sg43
F13
sg44
F-0.75409999999999999
sas(F0.38
F-0.01
tp4324
(lp4325
(dp4326
g5
g929
sg10
F179
sg11
F0
sa(dp4327
g5
g3240
sg10
F1
sg11
F0
sa(dp4328
g5
g840
sg10
F1
sg11
F0
sa(dp4329
g5
g1364
sg10
F1
sg11
F0
sas(F-0.42999999999999999
F-0.01
tp4330
(lp4331
(dp4332
g133
g6
(g8
S'\xe0z\x14\xaeG\xe1\xfa\xbf'
tRp4333
sg135
F2
sg136
F-0.0419
sa(dp4334
g5
g2208
sg10
F17
sg11
F-0.001
sa(dp4335
g5
g3090
sg10
F54
sg11
F-0
sas(F0.41999999999999998
F-0.02
tp4336
(lp4337
(dp4338
g5
g627
sg10
F49
sg11
F0
sa(dp4339
g5
g728
sg10
F1
sg11
F0
sa(dp4340
g5
g2055
sg10
F1
sg11
F0
sa(dp4341
g5
g955
sg10
F1
sg11
F0
sas(F0.92000000000000004
F0.68999999999999995
tp4342
(lp4343
(dp4344
g5
g2195
sg10
F2
sg11
F-0.098799999999999999
sa(dp4345
g5
g17
sg10
F1
sg11
F-0.1736
sas(F0.92000000000000004
F0.87
tp4346
(lp4347
(dp4348
g5
g1607
sg10
F5
sg11
F-0.5806
sa(dp4349
g5
g17
sg10
F1
sg11
F-0.52210000000000001
sas(F-0.02
F0
tp4350
(lp4351
(dp4352
g21
g6
(g8
S'|\xebQ\xb8\x1e\x85\xeb\xbf'
tRp4353
sg23
F51
sg24
F0.82640000000000002
sa(dp4354
g21
g1659
sg23
F3428
sg24
F0.81830000000000003
sa(dp4355
g21
g6
(g8
S'\xbap=\n\xd7\xa3\xe8?'
tRp4356
sg23
F116
sg24
F0.83130000000000004
sa(dp4357
g30
g673
sg32
F794
sg33
F0.83679999999999999
sa(dp4358
g30
g277
sg32
F325
sg33
F0.81000000000000005
sa(dp4359
g30
g669
sg32
F31
sg33
F0.8216
sa(dp4360
g30
g1143
sg32
F45
sg33
F0.97499999999999998
sa(dp4361
g30
g6
(g8
S'T\n\xd7\xa3p=\xea?'
tRp4362
sg32
F44
sg33
F0.82530000000000003
sa(dp4363
g30
g2723
sg32
F88
sg33
F0.81899999999999995
sa(dp4364
g30
g6
(g8
S'\x9c\xebQ\xb8\x1e\x85\xeb?'
tRp4365
sg32
F36
sg33
F0.82879999999999998
sa(dp4366
g30
g1661
sg32
F449
sg33
F0.83650000000000002
sa(dp4367
g30
g521
sg32
F135
sg33
F0.82120000000000004
sa(dp4368
g5
g1668
sg10
F1
sg11
F0.2177
sas(F-0.58999999999999997
F0
tp4369
(lp4370
(dp4371
g5
g261
sg10
F4
sg11
F0
sas(F0.17000000000000001
F0.02
tp4372
(lp4373
(dp4374
g5
g469
sg10
F2
sg11
F0
sas(F0.72999999999999998
F-0.01
tp4375
(lp4376
(dp4377
g5
g622
sg10
F230
sg11
F0
sa(dp4378
g5
g1463
sg10
F1
sg11
F0
sa(dp4379
g5
g558
sg10
F1
sg11
F0
sa(dp4380
g5
g2398
sg10
F1
sg11
F0
sas(F0.38
F-0.029999999999999999
tp4381
(lp4382
(dp4383
g5
g925
sg10
F1
sg11
F0
sas(F-0.65000000000000002
F0.01
tp4384
(lp4385
(dp4386
g5
g575
sg10
F1
sg11
F0
sas(F0.01
F-0.02
tp4387
(lp4388
(dp4389
g5
g1629
sg10
F15
sg11
F0.879
sa(dp4390
g5
g640
sg10
F24
sg11
F0.94930000000000003
sa(dp4391
g5
g2606
sg10
F1
sg11
F0.025000000000000001
sas(F0.92000000000000004
F0.31
tp4392
(lp4393
(dp4394
g5
g391
sg10
F6
sg11
F-0.49230000000000002
sas(F-0.080000000000000002
F-0.02
tp4395
(lp4396
(dp4397
g5
g377
sg10
F1
sg11
F0.00029999999999999997
sa(dp4398
g5
g1499
sg10
F17
sg11
F0.0064999999999999997
sas(F0.22
F-0.01
tp4399
(lp4400
(dp4401
g21
g61
sg23
F1683
sg24
F0
sa(dp4402
g30
g196
sg32
F1
sg33
F0
sa(dp4403
g41
g304
sg43
F1
sg44
F0
sa(dp4404
g5
g1351
sg10
F1
sg11
F0
sa(dp4405
g5
g75
sg10
F1
sg11
F0
sas(F0.12
F0.01
tp4406
(lp4407
(dp4408
g30
g1722
sg32
F786
sg33
F0
sa(dp4409
g30
g603
sg32
F1
sg33
F0
sa(dp4410
g41
g605
sg43
F1
sg44
F0
sa(dp4411
g5
g2853
sg10
F1
sg11
F0
sas(F0.26000000000000001
F0.02
tp4412
(lp4413
(dp4414
g5
g1035
sg10
F1
sg11
F0
sas(F0.70999999999999996
F0.01
tp4415
(lp4416
(dp4417
g5
g1439
sg10
F82
sg11
F0
sas(F-0.029999999999999999
F0.01
tp4418
(lp4419
(dp4420
g21
g717
sg23
F335
sg24
F0.80900000000000005
sa(dp4421
g30
g517
sg32
F64
sg33
F0.83720000000000006
sa(dp4422
g30
g515
sg32
F83
sg33
F1
sa(dp4423
g41
g1622
sg43
F92
sg44
F0.83879999999999999
sa(dp4424
g41
g1820
sg43
F103
sg44
F0.77610000000000001
sas(F0.29999999999999999
F0
tp4425
(lp4426
(dp4427
g21
g111
sg23
F1544
sg24
F-0.0327
sa(dp4428
g21
g3685
sg23
F2051
sg24
F-0.0070000000000000001
sa(dp4429
g30
g3191
sg32
F3617
sg33
F-0.0068999999999999999
sa(dp4430
g30
g1379
sg32
F438
sg33
F-0.032500000000000001
sa(dp4431
g30
g6
(g8
S'\xbc\xa3p=\n\xd7\xd3\xbf'
tRp4432
sg32
F1380
sg33
F-0.032500000000000001
sa(dp4433
g30
g1740
sg32
F444
sg33
F-0.032599999999999997
sa(dp4434
g30
g123
sg32
F188
sg33
F-0.033099999999999997
sa(dp4435
g41
g6
(g8
S'\xefz\x14\xaeG\xe1\xf6?'
tRp4436
sg43
F587
sg44
F-0.0054000000000000003
sa(dp4437
g5
g3510
sg10
F54
sg11
F-0.0086999999999999994
sas(F0.070000000000000007
F-0.02
tp4438
(lp4439
(dp4440
g5
g2311
sg10
F1
sg11
F0.032300000000000002
sa(dp4441
g5
g107
sg10
F45
sg11
F0.122
sa(dp4442
g5
g6
(g8
S'y\x14\xaeG\xe1z\xf8\xbf'
tRp4443
sg10
F1
sg11
F0.030800000000000001
sas(F0.54000000000000004
F-0.01
tp4444
(lp4445
(dp4446
g5
g937
sg10
F269
sg11
F0
sa(dp4447
g5
g3201
sg10
F1
sg11
F0
sa(dp4448
g5
g1638
sg10
F1
sg11
F0
sa(dp4449
g5
g1044
sg10
F1
sg11
F0
sas(F-0.17000000000000001
F0
tp4450
(lp4451
(dp4452
g30
g6
(g8
S'x\x14\xaeG\xe1z\xf4\xbf'
tRp4453
sg32
F835
sg33
F0
sa(dp4454
g30
g1740
sg32
F1
sg33
F0
sa(dp4455
g30
g3157
sg32
F1
sg33
F0
sa(dp4456
g41
g6
(g8
S'\xdez\x14\xaeG\xe1\xf2\xbf'
tRp4457
sg43
F1
sg44
F0
sa(dp4458
g41
g6
(g8
S'\x84\x8f\xc2\xf5(\\\xdf?'
tRp4459
sg43
F1
sg44
F0
sa(dp4460
g5
g261
sg10
F1
sg11
F0
sas(F0.34999999999999998
F0
tp4461
(lp4462
(dp4463
g5
g6
(g8
S'\x02\xd7\xa3p=\n\xef\xbf'
tRp4464
sg10
F666
sg11
F0
sa(dp4465
g5
g1486
sg10
F1
sg11
F0
sa(dp4466
g5
g437
sg10
F1
sg11
F0
sa(dp4467
g5
g1083
sg10
F1
sg11
F0
sas(F0.34000000000000002
F-0.02
tp4468
(lp4469
(dp4470
g5
g377
sg10
F47
sg11
F0
sa(dp4471
g5
g1689
sg10
F1
sg11
F0
sa(dp4472
g5
g542
sg10
F1
sg11
F-0
sa(dp4473
g5
g6
(g8
S'^fffff\xee\xbf'
tRp4474
sg10
F1
sg11
F0
sas(F0.070000000000000007
F0
tp4475
(lp4476
(dp4477
g21
g6
(g8
S'\xb8\xf5(\\\x8f\xc2\xe5\xbf'
tRp4478
sg23
F1
sg24
F0
sa(dp4479
g21
g6
(g8
S'~fffff\xee?'
tRp4480
sg23
F1
sg24
F0
sa(dp4481
g21
g3340
sg23
F3376
sg24
F0.030200000000000001
sa(dp4482
g30
g601
sg32
F619
sg33
F0.030700000000000002
sa(dp4483
g30
g1719
sg32
F1
sg33
F0.0001
sa(dp4484
g30
g6
(g8
S'\x9ap=\n\xd7\xa3\xe8\xbf'
tRp4485
sg32
F1
sg33
F0
sa(dp4486
g30
g1132
sg32
F303
sg33
F0.0051999999999999998
sa(dp4487
g30
g2173
sg32
F275
sg33
F0.0051999999999999998
sa(dp4488
g41
g2176
sg43
F640
sg44
F0.0126
sa(dp4489
g5
g4443
sg10
F375
sg11
F0.032399999999999998
sas(F0.84999999999999998
F-0.02
tp4490
(lp4491
(dp4492
g5
g2968
sg10
F1
sg11
F0
sas(F0.28000000000000003
F0.01
tp4493
(lp4494
(dp4495
g30
g1425
sg32
F1413
sg33
F0
sa(dp4496
g5
g3124
sg10
F1
sg11
F0
sas(F-0.52000000000000002
F-0.01
tp4497
(lp4498
(dp4499
g133
g357
sg135
F7
sg136
F-0.041000000000000002
sa(dp4500
g5
g6
(g8
S'\x14\xaeG\xe1z\x14\xfe\xbf'
tRp4501
sg10
F14
sg11
F-0.0016999999999999999
sas(F-0.46999999999999997
F0.01
tp4502
(lp4503
(dp4504
g133
g3956
sg135
F10
sg136
F-0.022599999999999999
sa(dp4505
g5
g2902
sg10
F16
sg11
F-0
sas(F0.76000000000000001
F-0.01
tp4506
(lp4507
(dp4508
g5
g437
sg10
F233
sg11
F0
sa(dp4509
g5
g439
sg10
F1
sg11
F0
sa(dp4510
g5
g815
sg10
F1
sg11
F0
sa(dp4511
g5
g2902
sg10
F1
sg11
F0
sas(F-0.10000000000000001
F-0.02
tp4512
(lp4513
(dp4514
g5
g1303
sg10
F18
sg11
F0.00050000000000000001
sa(dp4515
g5
g1240
sg10
F1
sg11
F0.0001
sas(F-0.10000000000000001
F-0.01
tp4516
(lp4517
(dp4518
g21
g26
sg23
F417
sg24
F0.00059999999999999995
sa(dp4519
g30
g3540
sg32
F1
sg33
F0
sa(dp4520
g5
g2396
sg10
F156
sg11
F0.0016000000000000001
sa(dp4521
g5
g48
sg10
F1
sg11
F0.00020000000000000001
sas(F0.92000000000000004
F0.40999999999999998
tp4522
(lp4523
(dp4524
g5
g105
sg10
F16
sg11
F-0.95820000000000005
sas(F0.92000000000000004
F0.28000000000000003
tp4525
(lp4526
(dp4527
g5
g1359
sg10
F5
sg11
F-0.30790000000000001
sa(dp4528
g5
g17
sg10
F1
sg11
F-0.090700000000000003
sas(F0.28999999999999998
F0.01
tp4529
(lp4530
(dp4531
g30
g1989
sg32
F833
sg33
F-0.00089999999999999998
sa(dp4532
g30
g1386
sg32
F78
sg33
F-0.0011999999999999999
sa(dp4533
g30
g3410
sg32
F187
sg33
F-0.0011000000000000001
sa(dp4534
g5
g3984
sg10
F256
sg11
F-0
sa(dp4535
g5
g975
sg10
F1
sg11
F0
sa(dp4536
g5
g6
(g8
S'K\n\xd7\xa3p=\xf6?'
tRp4537
sg10
F1
sg11
F-0.0001
sas(F0.92000000000000004
F0.48999999999999999
tp4538
(lp4539
(dp4540
g5
g317
sg10
F4
sg11
F-0.22800000000000001
sa(dp4541
g5
g17
sg10
F3
sg11
F-0.3009
sas(F-0.40000000000000002
F-0.01
tp4542
(lp4543
(dp4544
g133
g6
(g8
S'\xec(\\\x8f\xc2\xf5\xe8\xbf'
tRp4545
sg135
F7
sg136
F-0.0030000000000000001
sa(dp4546
g5
g2588
sg10
F105
sg11
F-0.00020000000000000001
sas(F0.92000000000000004
F0.55000000000000004
tp4547
(lp4548
(dp4549
g5
g375
sg10
F2
sg11
F-0.098799999999999999
sa(dp4550
g5
g17
sg10
F2
sg11
F-0.17649999999999999
sas(F0.92000000000000004
F0.79000000000000004
tp4551
(lp4552
(dp4553
g5
g937
sg10
F1
sg11
F-0.098799999999999999
sa(dp4554
g5
g17
sg10
F1
sg11
F-0.1777
sas(F0.52000000000000002
F0
tp4555
(lp4556
(dp4557
g5
g1114
sg10
F981
sg11
F0
sa(dp4558
g5
g1555
sg10
F1
sg11
F0
sa(dp4559
g5
g150
sg10
F1
sg11
F0
sa(dp4560
g5
g1116
sg10
F1
sg11
F0
sas(F0.92000000000000004
F0.34000000000000002
tp4561
(lp4562
(dp4563
g5
g712
sg10
F16
sg11
F-0.85819999999999996
sas(F0.92000000000000004
F0.68000000000000005
tp4564
(lp4565
(dp4566
g5
g1035
sg10
F5
sg11
F-0.30790000000000001
sa(dp4567
g5
g17
sg10
F4
sg11
F-0.34160000000000001
sas(F0.27000000000000002
F0.01
tp4568
(lp4569
(dp4570
g30
g2624
sg32
F1417
sg33
F0
sa(dp4571
g30
g1921
sg32
F1
sg33
F0
sa(dp4572
g41
g1419
sg43
F1
sg44
F0
sa(dp4573
g41
g1923
sg43
F1
sg44
F0
sas(F0.28000000000000003
F-0.02
tp4574
(lp4575
(dp4576
g5
g1319
sg10
F45
sg11
F0
sa(dp4577
g5
g653
sg10
F1
sg11
F0
sa(dp4578
g5
g3510
sg10
F1
sg11
F0
sas(F-0
F-0
tp4579
(lp4580
(dp4581
g21
g6
(g8
S'4\n\xd7\xa3p=\xea\xbf'
tRp4582
sg23
F73
sg24
F0.83009999999999995
sa(dp4583
g21
g1899
sg23
F5515
sg24
F0.82110000000000005
sa(dp4584
g21
g6
(g8
S'\x02R\xb8\x1e\x85\xeb\xe9?'
tRp4585
sg23
F76
sg24
F0.82420000000000004
sa(dp4586
g30
g519
sg32
F926
sg33
F0.80940000000000001
sa(dp4587
g30
g671
sg32
F355
sg33
F0.78969999999999996
sa(dp4588
g30
g515
sg32
F44
sg33
F0.82979999999999998
sa(dp4589
g30
g667
sg32
F37
sg33
F0.82540000000000002
sa(dp4590
g30
g517
sg32
F20
sg33
F0.82530000000000003
sa(dp4591
g30
g6
(g8
S'\x16\x85\xebQ\xb8\x1e\xed\xbf'
tRp4592
sg32
F90
sg33
F0.82499999999999996
sa(dp4593
g30
g6
(g8
S'\xe4\xcc\xcc\xcc\xcc\xcc\xec?'
tRp4594
sg32
F30
sg33
F0.8266
sa(dp4595
g30
g803
sg32
F444
sg33
F0.82689999999999997
sa(dp4596
g30
g1902
sg32
F236
sg33
F0.97499999999999998
sa(dp4597
g5
g3797
sg10
F1
sg11
F0.16839999999999999
sa(dp4598
g5
g1907
sg10
F1
sg11
F0.025000000000000001
sas(F0.070000000000000007
F0.02
tp4599
(lp4600
(dp4601
g5
g6
(g8
S'\xda\xf5(\\\x8f\xc2\xed?'
tRp4602
sg10
F3
sg11
F0.0014
sas(F-0.55000000000000004
F0.01
tp4603
(lp4604
(dp4605
g5
g1094
sg10
F5
sg11
F0
sas(F-0.12
F-0.02
tp4606
(lp4607
(dp4608
g5
g2620
sg10
F13
sg11
F0
sa(dp4609
g5
g429
sg10
F1
sg11
F0
sas(F0.92000000000000004
F0.22
tp4610
(lp4611
(dp4612
g5
g1439
sg10
F8
sg11
F-0.49590000000000001
sas(F0.029999999999999999
F0
tp4613
(lp4614
(dp4615
g21
g6
(g8
S'H\xb8\x1e\x85\xebQ\xe8\xbf'
tRp4616
sg23
F106
sg24
F0.83730000000000004
sa(dp4617
g21
g6
(g8
S'\xee\xa3p=\n\xd7\xeb?'
tRp4618
sg23
F149
sg24
F0.83989999999999998
sa(dp4619
g21
g2598
sg23
F5798
sg24
F0.97409999999999997
sa(dp4620
g30
g1187
sg32
F865
sg33
F0.83819999999999995
sa(dp4621
g30
g521
sg32
F459
sg33
F0.76649999999999996
sa(dp4622
g30
g683
sg32
F45
sg33
F0.83160000000000001
sa(dp4623
g30
g1132
sg32
F1
sg33
F0.025000000000000001
sa(dp4624
g30
g1141
sg32
F35
sg33
F0.82879999999999998
sa(dp4625
g30
g3779
sg32
F31
sg33
F0.82940000000000003
sa(dp4626
g30
g3776
sg32
F91
sg33
F0.83899999999999997
sa(dp4627
g30
g1138
sg32
F30
sg33
F0.83540000000000003
sa(dp4628
g30
g673
sg32
F590
sg33
F0.83650000000000002
sa(dp4629
g30
g4294
sg32
F292
sg33
F0.84060000000000001
sa(dp4630
g5
g2606
sg10
F1
sg11
F0.31530000000000002
sas(F0.12
F0.02
tp4631
(lp4632
(dp4633
g5
g1116
sg10
F2
sg11
F0
sas(F0.42999999999999999
F-0.02
tp4634
(lp4635
(dp4636
g5
g1633
sg10
F61
sg11
F0
sa(dp4637
g5
g1629
sg10
F1
sg11
F0
sa(dp4638
g5
g1627
sg10
F1
sg11
F0
sas(F-0.17999999999999999
F-0.02
tp4639
(lp4640
(dp4641
g5
g1527
sg10
F8
sg11
F0
sa(dp4642
g5
g144
sg10
F1
sg11
F0
sas(F0.92000000000000004
F0.26000000000000001
tp4643
(lp4644
(dp4645
g5
g1035
sg10
F6
sg11
F-0.38469999999999999
sas(F-0
F0.01
tp4646
(lp4647
(dp4648
g21
g663
sg23
F492
sg24
F0.70269999999999999
sa(dp4649
g30
g515
sg32
F107
sg33
F0.84160000000000001
sa(dp4650
g30
g683
sg32
F15
sg33
F0.82840000000000003
sa(dp4651
g41
g6
(g8
S'\x02R\xb8\x1e\x85\xeb\xe9?'
tRp4652
sg43
F189
sg44
F1
sa(dp4653
g5
g964
sg10
F1
sg11
F0.048800000000000003
sas(F-0.059999999999999998
F0.01
tp4654
(lp4655
(dp4656
g21
g1057
sg23
F640
sg24
F0.2409
sa(dp4657
g30
g669
sg32
F1
sg33
F0.0121
sa(dp4658
g30
g277
sg32
F1
sg33
F0.010500000000000001
sa(dp4659
g41
g3814
sg43
F1
sg44
F0.042000000000000003
sa(dp4660
g41
g281
sg43
F2
sg44
F0.23530000000000001
sas(F0.46000000000000002
F0
tp4661
(lp4662
(dp4663
g5
g1337
sg10
F912
sg11
F0
sa(dp4664
g5
g901
sg10
F1
sg11
F0
sa(dp4665
g5
g367
sg10
F1
sg11
F0
sa(dp4666
g5
g364
sg10
F1
sg11
F0
sas(F0.34000000000000002
F-0.01
tp4667
(lp4668
(dp4669
g5
g1083
sg10
F193
sg11
F-0
sa(dp4670
g5
g4464
sg10
F1
sg11
F-0
sa(dp4671
g5
g437
sg10
F1
sg11
F0
sas(F-0.040000000000000001
F0
tp4672
(lp4673
(dp4674
g21
g6
(g8
S'\xc4\xcc\xcc\xcc\xcc\xcc\xec\xbf'
tRp4675
sg23
F1
sg24
F0.22309999999999999
sa(dp4676
g21
g717
sg23
F1296
sg24
F0.61909999999999998
sa(dp4677
g21
g6
(g8
S'r\x8f\xc2\xf5(\\\xe7?'
tRp4678
sg23
F1
sg24
F0.27510000000000001
sa(dp4679
g30
g529
sg32
F1089
sg33
F0.62729999999999997
sa(dp4680
g30
g39
sg32
F443
sg33
F0.61739999999999995
sa(dp4681
g30
g279
sg32
F1
sg33
F0.1578
sa(dp4682
g30
g803
sg32
F1
sg33
F0.081600000000000006
sa(dp4683
g30
g1061
sg32
F1
sg33
F0.081500000000000003
sa(dp4684
g30
g4362
sg32
F1
sg33
F0.083599999999999994
sa(dp4685
g30
g2483
sg32
F863
sg33
F0.61219999999999997
sa(dp4686
g30
g515
sg32
F429
sg33
F0.89000000000000001
sa(dp4687
g5
g724
sg10
F1
sg11
F0.1051
sa(dp4688
g5
g4125
sg10
F1
sg11
F0.0018
sas(F-0.33000000000000002
F0
tp4689
(lp4690
(dp4691
g133
g6
(g8
S'\xfe\xff\xff\xff\xff\xff\xf7\xbf'
tRp4692
sg135
F25
sg136
F-0.0011999999999999999
sa(dp4693
g5
g2311
sg10
F794
sg11
F-0.00089999999999999998
sa(dp4694
g5
g1597
sg10
F17
sg11
F-0.00089999999999999998
sas(F0.10000000000000001
F0
tp4695
(lp4696
(dp4697
g21
g6
(g8
S'\xcc\xa3p=\n\xd7\xe3\xbf'
tRp4698
sg23
F5205
sg24
F0
sa(dp4699
g21
g6
(g8
S'5\\\x8f\xc2\xf5(\xf0?'
tRp4700
sg23
F1
sg24
F0
sa(dp4701
g21
g819
sg23
F414
sg24
F0.0033
sa(dp4702
g30
g1545
sg32
F82
sg33
F0.0055999999999999999
sa(dp4703
g30
g2434
sg32
F1
sg33
F0
sa(dp4704
g30
g6
(g8
S'\xae\x1e\x85\xebQ\xb8\xe6\xbf'
tRp4705
sg32
F1
sg33
F0
sa(dp4706
g30
g823
sg32
F1
sg33
F0
sa(dp4707
g30
g2927
sg32
F1
sg33
F0
sa(dp4708
g41
g2036
sg43
F1
sg44
F0.0012999999999999999
sa(dp4709
g5
g829
sg10
F268
sg11
F0.0033999999999999998
sas(F0.92000000000000004
F0.66000000000000003
tp4710
(lp4711
(dp4712
g5
g142
sg10
F2
sg11
F-0.13769999999999999
sas(F-0.14999999999999999
F0.02
tp4713
(lp4714
(dp4715
g5
g1293
sg10
F2
sg11
F0
sa(dp4716
g5
g1283
sg10
F1
sg11
F0
sas(F-0
F0.02
tp4717
(lp4718
(dp4719
g5
g649
sg10
F2
sg11
F1
sa(dp4720
g5
g646
sg10
F1
sg11
F0.025000000000000001
sas(F0.14000000000000001
F0
tp4721
(lp4722
(dp4723
g21
g6
(g8
S'<\xe1z\x14\xaeG\xe1\xbf'
tRp4724
sg23
F7265
sg24
F0
sa(dp4725
g21
g2431
sg23
F1
sg24
F0
sa(dp4726
g30
g693
sg32
F1
sg33
F0
sa(dp4727
g30
g695
sg32
F1
sg33
F0
sa(dp4728
g30
g6
(g8
S'\x1e\\\x8f\xc2\xf5(\xe4\xbf'
tRp4729
sg32
F1
sg33
F0
sa(dp4730
g30
g2434
sg32
F1
sg33
F0
sa(dp4731
g30
g1433
sg32
F1
sg33
F0
sa(dp4732
g41
g1166
sg43
F1
sg44
F0
sa(dp4733
g5
g206
sg10
F1
sg11
F0
sa(dp4734
g5
g1848
sg10
F1
sg11
F0
sas(F0.46000000000000002
F0.02
tp4735
(lp4736
(dp4737
g5
g728
sg10
F1
sg11
F0
sas(F-0.31
F0.01
tp4738
(lp4739
(dp4740
g133
g550
sg135
F29
sg136
F-0.00089999999999999998
sa(dp4741
g5
g3433
sg10
F190
sg11
F0
sa(dp4742
g5
g3713
sg10
F1
sg11
F0
sas(F0.72999999999999998
F0.01
tp4743
(lp4744
(dp4745
g5
g1156
sg10
F25
sg11
F0
sas(F-0.26000000000000001
F-0.01
tp4746
(lp4747
(dp4748
g30
g196
sg32
F251
sg33
F0
sa(dp4749
g5
g337
sg10
F1
sg11
F0
sa(dp4750
g5
g2774
sg10
F1
sg11
F0
sa(dp4751
g5
g261
sg10
F1
sg11
F0
sas(F0.33000000000000002
F-0.01
tp4752
(lp4753
(dp4754
g5
g1303
sg10
F22
sg11
F-0.00080000000000000004
sa(dp4755
g5
g1689
sg10
F64
sg11
F-0.00050000000000000001
sa(dp4756
g5
g815
sg10
F35
sg11
F-0.00050000000000000001
sa(dp4757
g5
g1789
sg10
F64
sg11
F-0.00050000000000000001
sas(F-0.089999999999999997
F-0.01
tp4758
(lp4759
(dp4760
g21
g275
sg23
F577
sg24
F0.0028999999999999998
sa(dp4761
g30
g37
sg32
F1
sg33
F0
sa(dp4762
g30
g3655
sg32
F1
sg33
F0
sa(dp4763
g41
g42
sg43
F1
sg44
F0
sa(dp4764
g5
g1240
sg10
F30
sg11
F0.0012999999999999999
sa(dp4765
g5
g3976
sg10
F2
sg11
F0.0014
sas(F0.35999999999999999
F-0.02
tp4766
(lp4767
(dp4768
g5
g1364
sg10
F51
sg11
F0
sa(dp4769
g5
g1451
sg10
F1
sg11
F0
sas(F0.059999999999999998
F-0.02
tp4770
(lp4771
(dp4772
g5
g2278
sg10
F1
sg11
F0.1603
sa(dp4773
g5
g15
sg10
F31
sg11
F0.28349999999999997
sa(dp4774
g5
g2835
sg10
F1
sg11
F0.0166
sa(dp4775
g5
g3045
sg10
F1
sg11
F0.0032000000000000002
sas(F-0.29999999999999999
F0
tp4776
(lp4777
(dp4778
g133
g6
(g8
S'\x08\xd7\xa3p=\n\xf7\xbf'
tRp4779
sg135
F121
sg136
F-0.00089999999999999998
sa(dp4780
g5
g1882
sg10
F16
sg11
F-0.00089999999999999998
sa(dp4781
g5
g2163
sg10
F26
sg11
F-0.00089999999999999998
sa(dp4782
g5
g261
sg10
F477
sg11
F0
sas(F0.73999999999999999
F-0.01
tp4783
(lp4784
(dp4785
g5
g995
sg10
F226
sg11
F0
sa(dp4786
g5
g2385
sg10
F1
sg11
F0
sa(dp4787
g5
g622
sg10
F1
sg11
F0
sa(dp4788
g5
g1242
sg10
F1
sg11
F0
sas(F0.92000000000000004
F0.38
tp4789
(lp4790
(dp4791
g5
g1046
sg10
F5
sg11
F-0.30819999999999997
sa(dp4792
g5
g17
sg10
F3
sg11
F-0.22140000000000001
sas(F0.92000000000000004
F0.32000000000000001
tp4793
(lp4794
(dp4795
g5
g17
sg10
F4
sg11
F-0.26540000000000002
sas(F-0.56000000000000005
F-0.01
tp4796
(lp4797
(dp4798
g5
g461
sg10
F6
sg11
F0
sas(F0.029999999999999999
F-0.02
tp4799
(lp4800
(dp4801
g5
g3696
sg10
F29
sg11
F0.92559999999999998
sa(dp4802
g5
g1607
sg10
F16
sg11
F0.97499999999999998
sa(dp4803
g5
g2606
sg10
F1
sg11
F0.048800000000000003
sas(F0.14999999999999999
F0.01
tp4804
(lp4805
(dp4806
g30
g1430
sg32
F945
sg33
F0
sa(dp4807
g41
g1398
sg43
F1
sg44
F0
sa(dp4808
g41
g613
sg43
F1
sg44
F0
sa(dp4809
g41
g1166
sg43
F1
sg44
F0
sas(F-0.29999999999999999
F-0.01
tp4810
(lp4811
(dp4812
g133
g2913
sg135
F8
sg136
F-0.00029999999999999997
sa(dp4813
g5
g2683
sg10
F213
sg11
F0
sa(dp4814
g5
g2519
sg10
F1
sg11
F0
sa(dp4815
g5
g261
sg10
F1
sg11
F0
sas(F-0.31
F-0.02
tp4816
(lp4817
(dp4818
g5
g2683
sg10
F1
sg11
F0
sas(F0.35999999999999999
F0
tp4819
(lp4820
(dp4821
g5
g4474
sg10
F649
sg11
F0
sa(dp4822
g5
g377
sg10
F1
sg11
F0
sa(dp4823
g5
g542
sg10
F1
sg11
F0
sa(dp4824
g5
g1009
sg10
F1
sg11
F0
sas(F0.32000000000000001
F0.29999999999999999
tp4825
(lp4826
(dp4827
g21
g1130
sg23
F11
sg24
F-1.8325
sa(dp4828
g21
g2333
sg23
F24
sg24
F-1.8091999999999999
sa(dp4829
g41
g235
sg43
F5
sg44
F-0.313
sas(F0.42999999999999999
F0
tp4830
(lp4831
(dp4832
g5
g411
sg10
F680
sg11
F0
sa(dp4833
g5
g317
sg10
F1
sg11
F0
sa(dp4834
g5
g413
sg10
F1
sg11
F0
sa(dp4835
g5
g534
sg10
F1
sg11
F0
sas(F0.92000000000000004
F0.23999999999999999
tp4836
(lp4837
(dp4838
g5
g186
sg10
F9
sg11
F-0.53000000000000003
sa(dp4839
g5
g17
sg10
F3
sg11
F-0.27560000000000001
sas(F0.32000000000000001
F0.37
tp4840
(lp4841
(dp4842
g30
g6
(g8
S' \x99\x99\x99\x99\x99\xb9\xbf'
tRp4843
sg32
F6
sg33
F-0.45750000000000002
sa(dp4844
g30
g97
sg32
F3
sg33
F-0.4083
sa(dp4845
g41
g1005
sg43
F3
sg44
F-0.2286
sas(F0.34999999999999998
F-0.01
tp4846
(lp4847
(dp4848
g5
g377
sg10
F182
sg11
F0
sa(dp4849
g5
g4474
sg10
F1
sg11
F0
sa(dp4850
g5
g542
sg10
F1
sg11
F0
sa(dp4851
g5
g1083
sg10
F1
sg11
F0
sas(F0.92000000000000004
F0.28999999999999998
tp4852
(lp4853
(dp4854
g5
g1031
sg10
F7
sg11
F-0.49469999999999997
sas(F-0.63
F0.01
tp4855
(lp4856
(dp4857
g5
g774
sg10
F1
sg11
F0
sas(F-0.64000000000000001
F0.01
tp4858
(lp4859
(dp4860
g5
g249
sg10
F1
sg11
F0
sas(F-0.20000000000000001
F0.01
tp4861
(lp4862
(dp4863
g30
g214
sg32
F305
sg33
F0
sa(dp4864
g5
g3138
sg10
F1
sg11
F0
sa(dp4865
g5
g83
sg10
F1
sg11
F0
sas(F-0.23999999999999999
F-0.01
tp4866
(lp4867
(dp4868
g30
g310
sg32
F254
sg33
F0
sa(dp4869
g5
g249
sg10
F1
sg11
F0
sas(F-0.16
F0.01
tp4870
(lp4871
(dp4872
g30
g1740
sg32
F357
sg33
F0
sa(dp4873
g5
g1293
sg10
F1
sg11
F0
sa(dp4874
g5
g917
sg10
F1
sg11
F0
sas(F0.23999999999999999
F0
tp4875
(lp4876
(dp4877
g21
g6
(g8
S'\xa8\xf5(\\\x8f\xc2\xd5\xbf'
tRp4878
sg23
F11847
sg24
F0
sa(dp4879
g21
g3896
sg23
F1
sg24
F0
sa(dp4880
g30
g1290
sg32
F1
sg33
F0
sa(dp4881
g30
g63
sg32
F1
sg33
F0
sa(dp4882
g30
g6
(g8
S'l\xebQ\xb8\x1e\x85\xdb\xbf'
tRp4883
sg32
F1
sg33
F0
sa(dp4884
g30
g310
sg32
F1
sg33
F0
sa(dp4885
g30
g2215
sg32
F1
sg33
F0
sa(dp4886
g41
g2217
sg43
F1
sg44
F0
sa(dp4887
g5
g146
sg10
F1
sg11
F0
sa(dp4888
g5
g17
sg10
F1
sg11
F0
sas(F-0.35999999999999999
F0
tp4889
(lp4890
(dp4891
g133
g6
(g8
S'\xf4(\\\x8f\xc2\xf5\xf8\xbf'
tRp4892
sg135
F1
sg136
F-0.00089999999999999998
sa(dp4893
g5
g1013
sg10
F1
sg11
F-0.00089999999999999998
sa(dp4894
g5
g1871
sg10
F862
sg11
F-0.0001
sas(F0.029999999999999999
F0.01
tp4895
(lp4896
(dp4897
g21
g1130
sg23
F547
sg24
F1
sa(dp4898
g21
g4618
sg23
F164
sg24
F0.8669
sa(dp4899
g30
g231
sg32
F58
sg33
F0.86919999999999997
sa(dp4900
g41
g6
(g8
S'\x92\x14\xaeG\xe1z\xec?'
tRp4901
sg43
F28
sg44
F0.86760000000000004
sa(dp4902
g5
g730
sg10
F15
sg11
F0.85529999999999995
sas(F0.71999999999999997
F0.01
tp4903
(lp4904
(dp4905
g5
g588
sg10
F48
sg11
F-0.20949999999999999
sas(F0.16
F-0.01
tp4906
(lp4907
(dp4908
g21
g482
sg23
F1301
sg24
F0
sa(dp4909
g30
g597
sg32
F1
sg33
F0
sa(dp4910
g30
g488
sg32
F1
sg33
F0
sa(dp4911
g41
g3880
sg43
F1
sg44
F0
sa(dp4912
g41
g1547
sg43
F1
sg44
F0
sa(dp4913
g5
g494
sg10
F1
sg11
F0
sas(F0.13
F0.02
tp4914
(lp4915
(dp4916
g5
g1042
sg10
F3
sg11
F0
sas(F0.68999999999999995
F-0.02
tp4917
(lp4918
(dp4919
g5
g909
sg10
F33
sg11
F0
sa(dp4920
g5
g588
sg10
F1
sg11
F0
sas(F-0.17999999999999999
F0.02
tp4921
(lp4922
(dp4923
g5
g444
sg10
F1
sg11
F0
sas(F0.64000000000000001
F-0.01
tp4924
(lp4925
(dp4926
g5
g2195
sg10
F331
sg11
F0
sa(dp4927
g5
g3385
sg10
F1
sg11
F0
sa(dp4928
g5
g2092
sg10
F1
sg11
F0
sas(F-0.51000000000000001
F0.01
tp4929
(lp4930
(dp4931
g133
g2498
sg135
F19
sg136
F-0.0207
sas(F0
F-0.02
tp4932
(lp4933
(dp4934
g5
g627
sg10
F1
sg11
F0.81399999999999995
sa(dp4935
g5
g399
sg10
F29
sg11
F0.96879999999999999
sas(F0.66000000000000003
F0.02
tp4936
(lp4937
(dp4938
g5
g1914
sg10
F5
sg11
F0
sas(F-0.60999999999999999
F0
tp4939
(lp4940
(dp4941
g5
g261
sg10
F5
sg11
F0
sa(dp4942
g5
g1151
sg10
F1
sg11
F0
sas(F-0.27000000000000002
F-0.01
tp4943
(lp4944
(dp4945
g30
g219
sg32
F248
sg33
F0
sa(dp4946
g5
g2774
sg10
F1
sg11
F0
sa(dp4947
g5
g267
sg10
F1
sg11
F0
sas(F0.54000000000000004
F0
tp4948
(lp4949
(dp4950
g5
g1040
sg10
F1101
sg11
F0
sa(dp4951
g5
g1044
sg10
F1
sg11
F0
sa(dp4952
g5
g2546
sg10
F1
sg11
F0
sa(dp4953
g5
g1046
sg10
F1
sg11
F0
sas(F-0.31
F0.02
tp4954
(lp4955
(dp4956
g5
g2311
sg10
F2
sg11
F-0
sa(dp4957
g5
g2853
sg10
F1
sg11
F0
sas(F-0.26000000000000001
F0.02
tp4958
(lp4959
(dp4960
g5
g617
sg10
F2
sg11
F0
sas(F0.68000000000000005
F0
tp4961
(lp4962
(dp4963
g5
g189
sg10
F1660
sg11
F0
sa(dp4964
g5
g142
sg10
F1
sg11
F0
sa(dp4965
g5
g17
sg10
F1
sg11
F0
sa(dp4966
g5
g186
sg10
F1
sg11
F0
sas(F0.33000000000000002
F-0.02
tp4967
(lp4968
(dp4969
g5
g437
sg10
F47
sg11
F-0
sa(dp4970
g5
g1083
sg10
F1
sg11
F0
sas(F-0.34000000000000002
F0.02
tp4971
(lp4972
(dp4973
g5
g1013
sg10
F1
sg11
F0
sas(F0.059999999999999998
F-0.01
tp4974
(lp4975
(dp4976
g21
g4478
sg23
F1
sg24
F0
sa(dp4977
g21
g3340
sg23
F616
sg24
F0.15290000000000001
sa(dp4978
g30
g513
sg32
F1
sg33
F0.020299999999999999
sa(dp4979
g30
g1132
sg32
F1
sg33
F0.0088999999999999999
sa(dp4980
g41
g4212
sg43
F239
sg44
F0.23480000000000001
sa(dp4981
g5
g4443
sg10
F13
sg11
F0.23230000000000001
sa(dp4982
g5
g1013
sg10
F1
sg11
F0.025600000000000001
sas(F0.52000000000000002
F-0.02
tp4983
(lp4984
(dp4985
g5
g1044
sg10
F41
sg11
F0
sa(dp4986
g5
g1114
sg10
F1
sg11
F0
sa(dp4987
g5
g1046
sg10
F1
sg11
F0
sa(dp4988
g5
g1040
sg10
F1
sg11
F0
sas(F0.32000000000000001
F0.59999999999999998
tp4989
(lp4990
(dp4991
g30
g611
sg32
F2
sg33
F-0.1358
sas(F-0.29999999999999999
F0.01
tp4992
(lp4993
(dp4994
g133
g2321
sg135
F207
sg136
F0
sa(dp4995
g5
g2163
sg10
F1
sg11
F0
sa(dp4996
g5
g2323
sg10
F1
sg11
F-0
sa(dp4997
g5
g3433
sg10
F1
sg11
F0
sas(F-0.34999999999999998
F0.02
tp4998
(lp4999
(dp5000
g5
g3696
sg10
F1
sg11
F0
sas(F-0.34000000000000002
F0
tp5001
(lp5002
(dp5003
g133
g6
(g8
S'x33333\xc3?'
tRp5004
sg135
F555
sg136
F-0.00089999999999999998
sa(dp5005
g5
g6
(g8
S'P\xb8\x1e\x85\xebQ\xf8\xbf'
tRp5006
sg10
F204
sg11
F-0.00089999999999999998
sa(dp5007
g5
g2278
sg10
F61
sg11
F-0.00089999999999999998
sas(F0.52000000000000002
F0.02
tp5008
(lp5009
(dp5010
g5
g17
sg10
F1
sg11
F0
sas(F0.83999999999999997
F-0.02
tp5011
(lp5012
(dp5013
g5
g1227
sg10
F2
sg11
F0
sas(F-0.46999999999999997
F0.02
tp5014
(lp5015
(dp5016
g5
g896
sg10
F2
sg11
F-0
sas(F0.66000000000000003
F0
tp5017
(lp5018
(dp5019
g5
g2192
sg10
F1470
sg11
F0
sa(dp5020
g5
g1035
sg10
F1
sg11
F0
sa(dp5021
g5
g17
sg10
F1
sg11
F0
sa(dp5022
g5
g405
sg10
F1
sg11
F0
sas(F0.080000000000000002
F0.02
tp5023
(lp5024
(dp5025
g5
g865
sg10
F2
sg11
F0.0015
sas(F-0.62
F0
tp5026
(lp5027
(dp5028
g5
g261
sg10
F12
sg11
F0
sa(dp5029
g5
g1027
sg10
F1
sg11
F0
sas(F0.85999999999999999
F-0.01
tp5030
(lp5031
(dp5032
g5
g2968
sg10
F214
sg11
F-0.050000000000000003
sa(dp5033
g5
g1633
sg10
F29
sg11
F0
sas(F-0.01
F0.01
tp5034
(lp5035
(dp5036
g21
g1659
sg23
F444
sg24
F0.84330000000000005
sa(dp5037
g30
g671
sg32
F63
sg33
F0.86170000000000002
sa(dp5038
g30
g683
sg32
F56
sg33
F0.8639
sa(dp5039
g30
g521
sg32
F41
sg33
F0.86160000000000003
sa(dp5040
g41
g4652
sg43
F45
sg44
F0.84289999999999998
sa(dp5041
g41
g6
(g8
S'^\xe1z\x14\xaeG\xe9?'
tRp5042
sg43
F80
sg44
F0.85999999999999999
sa(dp5043
g5
g742
sg10
F32
sg11
F1
sas(F-0.41999999999999998
F-0.01
tp5044
(lp5045
(dp5046
g133
g6
(g8
S'4\n\xd7\xa3p=\xea\xbf'
tRp5047
sg135
F3
sg136
F-0.012800000000000001
sa(dp5048
g5
g401
sg10
F87
sg11
F-0
sas(F-0.070000000000000007
F0.02
tp5049
(lp5050
(dp5051
g5
g1789
sg10
F5
sg11
F0.024400000000000002
sa(dp5052
g5
g6
(g8
S'\xe2\xcc\xcc\xcc\xcc\xcc\xe4?'
tRp5053
sg10
F1
sg11
F0.0016000000000000001
sas(F0.92000000000000004
F0.57999999999999996
tp5054
(lp5055
(dp5056
g5
g1303
sg10
F2
sg11
F-0.1381
sas(F0.92000000000000004
F0.53000000000000003
tp5057
(lp5058
(dp5059
g5
g840
sg10
F5
sg11
F-0.30880000000000002
sas(F0.63
F-0.02
tp5060
(lp5061
(dp5062
g5
g2195
sg10
F47
sg11
F0
sa(dp5063
g5
g1027
sg10
F1
sg11
F0
sa(dp5064
g5
g2092
sg10
F1
sg11
F0
sas(F0.68000000000000005
F0.01
tp5065
(lp5066
(dp5067
g5
g351
sg10
F174
sg11
F0
sa(dp5068
g5
g17
sg10
F1
sg11
F0
sas(F-0.070000000000000007
F-0.02
tp5069
(lp5070
(dp5071
g5
g371
sg10
F2
sg11
F0.0019
sa(dp5072
g5
g243
sg10
F26
sg11
F0.017399999999999999
sas(F0.56999999999999995
F0.01
tp5073
(lp5074
(dp5075
g5
g1703
sg10
F207
sg11
F0
sas(F0.92000000000000004
F0.69999999999999996
tp5076
(lp5077
(dp5078
g5
g1359
sg10
F5
sg11
F-0.35780000000000001
sa(dp5079
g5
g17
sg10
F2
sg11
F-0.40720000000000001
sas.