(dp1
(F0
F0
tp2
(lp3
(dp4
S'action'
p5
cnumpy.core.multiarray
scalar
p6
(cnumpy
dtype
p7
(S'f8'
I0
I1
tRp8
(I3
S'<'
NNNI-1
I-1
I0
tbS'\x00\x00\x00\x00\x00\x00\x00\xc0'
tRp9
sS'count'
p10
F7
sS'value'
p11
F0.7087
sas(F0.32000000000000001
F0
tp12
(lp13
(dp14
g5
g9
sg10
F5988
sg11
F-1.9981
sas(F0.32000000000000001
F0.32000000000000001
tp15
(lp16
(dp17
g5
g9
sg10
F5
sg11
F-0.32700000000000001
sas.